

Microchip Technology PIC18 LITE Macro Assembler V1.38 build -256452561 
                                                                                               Wed Sep 14 19:32:58 2016

Microchip Technology Omniscient Code Generator v1.38 (Free mode) build 201607010351
     1                           	processor	18F45K20
     2                           	fnconf	rparam,??,?,0
     3                           	opt	pw 120
     4                           	opt	lm
     5                           	psect	idataCOMRAM,global,class=CODE,delta=1
     6                           	psect	cinit,global,reloc=2,class=CODE,delta=1
     7                           	psect	bssCOMRAM,global,class=COMRAM,space=1,delta=1
     8                           	psect	dataCOMRAM,global,class=COMRAM,space=1,delta=1
     9                           	psect	cstackCOMRAM,global,class=COMRAM,space=1,delta=1
    10                           	psect	text0,global,reloc=2,class=CODE,delta=1
    11                           	psect	text1,global,reloc=2,class=CODE,delta=1
    12                           	psect	text2,global,reloc=2,class=CODE,delta=1
    13                           	psect	text3,global,reloc=2,class=CODE,delta=1
    14                           	psect	text4,global,reloc=2,class=CODE,delta=1
    15                           	psect	text5,global,reloc=2,class=CODE,delta=1
    16                           	psect	text6,global,reloc=2,class=CODE,delta=1
    17                           	psect	text7,global,reloc=2,class=CODE,delta=1
    18                           	psect	intcode,global,reloc=2,class=CODE,delta=1
    19                           	psect	text9,global,reloc=2,class=CODE,delta=1
    20                           	psect	intsave_regs,global,class=BIGRAM,space=1,delta=1
    21                           	psect	rparam,global,class=COMRAM,space=1,delta=1
    22                           	psect	temp,global,ovrld,common,class=COMRAM,space=1,delta=1
    23  0000                     
    24                           	psect	idataCOMRAM
    25  000730                     __pidataCOMRAM:
    26                           	opt stack 0
    27                           
    28                           ;initializer for _max_cicle
    29  000730  0014               	dw	20
    30                           
    31                           ;initializer for _off_duty
    32  000732  0001               	dw	1
    33  0000                     _INTCON2bits	set	4081
    34  0000                     _INTCON3bits	set	4080
    35  0000                     _INTCONbits	set	4082
    36  0000                     _PORTCbits	set	3970
    37  0000                     _RCONbits	set	4048
    38  0000                     _T0CONbits	set	4053
    39  0000                     _LATD0	set	31840
    40  0000                     _LATD1	set	31841
    41  0000                     _LATD2	set	31842
    42  0000                     _LATD4	set	31844
    43  0000                     _LATD6	set	31846
    44  0000                     _LATD7	set	31847
    45  0000                     _RC1	set	31761
    46  0000                     _RC2	set	31762
    47  0000                     _RC4	set	31764
    48  0000                     _RC5	set	31765
    49  0000                     _RC7	set	31767
    50  0000                     _TRISB0	set	31896
    51  0000                     _TRISB1	set	31897
    52  0000                     _TRISB2	set	31898
    53  0000                     _TRISC1	set	31905
    54  0000                     _TRISC2	set	31906
    55  0000                     _TRISC4	set	31908
    56  0000                     _TRISC5	set	31909
    57  0000                     _TRISC6	set	31910
    58  0000                     _TRISC7	set	31911
    59  0000                     _TRISD0	set	31912
    60  0000                     _TRISD1	set	31913
    61  0000                     _TRISD2	set	31914
    62  0000                     _TRISD3	set	31915
    63  0000                     _TRISD4	set	31916
    64  0000                     _TRISD5	set	31917
    65  0000                     _TRISD6	set	31918
    66  0000                     _TRISD7	set	31919
    67                           
    68                           ; #config settings
    69  0000                     
    70                           	psect	cinit
    71  0006C0                     __pcinit:
    72                           	opt stack 0
    73  0006C0                     start_initialization:
    74                           	opt stack 0
    75  0006C0                     __initialization:
    76                           	opt stack 0
    77                           
    78                           ; Initialize objects allocated to COMRAM (4 bytes)
    79                           ; load TBLPTR registers with __pidataCOMRAM
    80  0006C0  0E30               	movlw	low __pidataCOMRAM
    81  0006C2  6EF6               	movwf	tblptrl,c
    82  0006C4  0E07               	movlw	high __pidataCOMRAM
    83  0006C6  6EF7               	movwf	tblptrh,c
    84  0006C8  0E00               	movlw	low (__pidataCOMRAM shr (0+16))
    85  0006CA  6EF8               	movwf	tblptru,c
    86  0006CC  EE00  F034         	lfsr	0,__pdataCOMRAM
    87  0006D0  EE10 F004          	lfsr	1,4
    88  0006D4                     copy_data0:
    89  0006D4  0009               	tblrd		*+
    90  0006D6  CFF5 FFEE          	movff	tablat,postinc0
    91  0006DA  50E5               	movf	postdec1,w,c
    92  0006DC  50E1               	movf	fsr1l,w,c
    93  0006DE  E1FA               	bnz	copy_data0
    94                           
    95                           ; Clear objects allocated to COMRAM (10 bytes)
    96  0006E0  EE00  F02A         	lfsr	0,__pbssCOMRAM
    97  0006E4  0E0A               	movlw	10
    98  0006E6                     clear_0:
    99  0006E6  6AEE               	clrf	postinc0,c
   100  0006E8  06E8               	decf	wreg,f,c
   101  0006EA  E1FD               	bnz	clear_0
   102  0006EC                     end_of_initialization:
   103                           	opt stack 0
   104  0006EC                     __end_of__initialization:
   105                           	opt stack 0
   106  0006EC  9038               	bcf	int$flags,0,c	;clear compiler interrupt flag (level 1)
   107  0006EE  9238               	bcf	int$flags,1,c	;clear compiler interrupt flag (level 2)
   108  0006F0  0E00               	movlw	low (__Lmediumconst shr (0+16))
   109  0006F2  6EF8               	movwf	tblptru,c
   110  0006F4  0100               	movlb	0
   111  0006F6  EFAB  F002         	goto	_main	;jump to C main() function
   112                           tblptru	equ	0xFF8
   113                           tblptrh	equ	0xFF7
   114                           tblptrl	equ	0xFF6
   115                           tablat	equ	0xFF5
   116                           postinc0	equ	0xFEE
   117                           wreg	equ	0xFE8
   118                           postdec1	equ	0xFE5
   119                           fsr1l	equ	0xFE1
   120                           
   121                           	psect	bssCOMRAM
   122  00002A                     __pbssCOMRAM:
   123                           	opt stack 0
   124  00002A                     _count:
   125                           	opt stack 0
   126  00002A                     	ds	2
   127  00002C                     _direcao:
   128                           	opt stack 0
   129  00002C                     	ds	2
   130  00002E                     _modo:
   131                           	opt stack 0
   132  00002E                     	ds	2
   133  000030                     _running:
   134                           	opt stack 0
   135  000030                     	ds	2
   136  000032                     _velocidade:
   137                           	opt stack 0
   138  000032                     	ds	2
   139                           tblptru	equ	0xFF8
   140                           tblptrh	equ	0xFF7
   141                           tblptrl	equ	0xFF6
   142                           tablat	equ	0xFF5
   143                           postinc0	equ	0xFEE
   144                           wreg	equ	0xFE8
   145                           postdec1	equ	0xFE5
   146                           fsr1l	equ	0xFE1
   147                           
   148                           	psect	dataCOMRAM
   149  000034                     __pdataCOMRAM:
   150                           	opt stack 0
   151  000034                     _max_cicle:
   152                           	opt stack 0
   153  000034                     	ds	2
   154  000036                     _off_duty:
   155                           	opt stack 0
   156  000036                     	ds	2
   157                           tblptru	equ	0xFF8
   158                           tblptrh	equ	0xFF7
   159                           tblptrl	equ	0xFF6
   160                           tablat	equ	0xFF5
   161                           postinc0	equ	0xFEE
   162                           wreg	equ	0xFE8
   163                           postdec1	equ	0xFE5
   164                           fsr1l	equ	0xFE1
   165                           
   166                           	psect	cstackCOMRAM
   167  000001                     __pcstackCOMRAM:
   168                           	opt stack 0
   169  000001                     ?i2___awmod:
   170                           	opt stack 0
   171  000001                     i2___awmod@dividend:
   172                           	opt stack 0
   173                           
   174                           ; 2 bytes @ 0x0
   175  000001                     	ds	2
   176  000003                     i2___awmod@divisor:
   177                           	opt stack 0
   178                           
   179                           ; 2 bytes @ 0x2
   180  000003                     	ds	2
   181  000005                     i2___awmod@counter:
   182                           	opt stack 0
   183                           
   184                           ; 1 bytes @ 0x4
   185  000005                     	ds	1
   186  000006                     i2___awmod@sign:
   187                           	opt stack 0
   188                           
   189                           ; 1 bytes @ 0x5
   190  000006                     	ds	1
   191  000007                     ??_tc_int:
   192                           
   193                           ; 1 bytes @ 0x6
   194  000007                     	ds	14
   195  000015                     ?___awmod:
   196                           	opt stack 0
   197  000015                     delayX@n:
   198                           	opt stack 0
   199  000015                     SetPWM@status:
   200                           	opt stack 0
   201  000015                     Direction@dir:
   202                           	opt stack 0
   203  000015                     ___awmod@dividend:
   204                           	opt stack 0
   205                           
   206                           ; 2 bytes @ 0x14
   207  000015                     	ds	2
   208  000017                     ??_delayX:
   209  000017                     ??_Direction:
   210  000017                     SetPWM@veloc:
   211                           	opt stack 0
   212  000017                     ___awmod@divisor:
   213                           	opt stack 0
   214                           
   215                           ; 2 bytes @ 0x16
   216  000017                     	ds	1
   217  000018                     delayX@i:
   218                           	opt stack 0
   219                           
   220                           ; 2 bytes @ 0x17
   221  000018                     	ds	1
   222  000019                     ??_SetPWM:
   223  000019                     ___awmod@counter:
   224                           	opt stack 0
   225                           
   226                           ; 1 bytes @ 0x18
   227  000019                     	ds	1
   228  00001A                     ___awmod@sign:
   229                           	opt stack 0
   230                           
   231                           ; 1 bytes @ 0x19
   232  00001A                     	ds	1
   233  00001B                     ativaModo@Modo:
   234                           	opt stack 0
   235                           
   236                           ; 2 bytes @ 0x1A
   237  00001B                     	ds	2
   238  00001D                     ativaModo@dir:
   239                           	opt stack 0
   240                           
   241                           ; 2 bytes @ 0x1C
   242  00001D                     	ds	2
   243  00001F                     ??_ativaModo:
   244                           
   245                           ; 1 bytes @ 0x1E
   246  00001F                     	ds	2
   247  000021                     ativaModo@i:
   248                           	opt stack 0
   249                           
   250                           ; 2 bytes @ 0x20
   251  000021                     	ds	2
   252  000023                     ativaModo@i_433:
   253                           	opt stack 0
   254                           
   255                           ; 2 bytes @ 0x22
   256  000023                     	ds	2
   257  000025                     
   258                           ; 2 bytes @ 0x24
   259  000025                     	ds	2
   260  000027                     
   261                           ; 3 bytes @ 0x26
   262  000027                     	ds	3
   263  00002A                     tblptru	equ	0xFF8
   264                           tblptrh	equ	0xFF7
   265                           tblptrl	equ	0xFF6
   266                           tablat	equ	0xFF5
   267                           postinc0	equ	0xFEE
   268                           wreg	equ	0xFE8
   269                           postdec1	equ	0xFE5
   270                           fsr1l	equ	0xFE1
   271                           
   272                           ; 1 bytes @ 0x29
   273 ;;
   274 ;;Main: autosize = 0, tempsize = 0, incstack = 0, save=0
   275 ;;
   276 ;; *************** function _main *****************
   277 ;; Defined at:
   278 ;;		line 384 in file "PWMcomTimerV3.c"
   279 ;; Parameters:    Size  Location     Type
   280 ;;  argc            2   36[COMRAM] int 
   281 ;;  argv            3   38[COMRAM] PTR PTR unsigned char 
   282 ;; Auto vars:     Size  Location     Type
   283 ;;		None
   284 ;; Return value:  Size  Location     Type
   285 ;;                  2   36[COMRAM] int 
   286 ;; Registers used:
   287 ;;		wreg, status,2, status,0, cstack
   288 ;; Tracked objects:
   289 ;;		On entry : 0/0
   290 ;;		On exit  : 0/0
   291 ;;		Unchanged: 0/0
   292 ;; Data sizes:     COMRAM   BANK0   BANK1   BANK2   BANK3   BANK4   BANK5
   293 ;;      Params:         5       0       0       0       0       0       0
   294 ;;      Locals:         0       0       0       0       0       0       0
   295 ;;      Temps:          0       0       0       0       0       0       0
   296 ;;      Totals:         5       0       0       0       0       0       0
   297 ;;Total ram usage:        5 bytes
   298 ;; Hardware stack levels required when called:    4
   299 ;; This function calls:
   300 ;;		___awmod
   301 ;;		_ativaModo
   302 ;;		_attLeds
   303 ;;		_delayX
   304 ;;		_setup
   305 ;; This function is called by:
   306 ;;		Startup code after reset
   307 ;; This function uses a non-reentrant model
   308 ;;
   309                           
   310                           	psect	text0
   311  000556                     __ptext0:
   312                           	opt stack 0
   313  000556                     _main:
   314                           	opt stack 27
   315                           
   316                           ;PWMcomTimerV3.c: 386: setup();
   317                           
   318                           ;incstack = 0
   319  000556  EC38  F003         	call	_setup	;wreg free
   320                           
   321                           ;PWMcomTimerV3.c: 387: attLeds();
   322  00055A  EC75  F002         	call	_attLeds	;wreg free
   323  00055E                     l1189:
   324                           
   325                           ;PWMcomTimerV3.c: 390: {
   326                           ;PWMcomTimerV3.c: 391: if(PORTCbits.RC6 == 1)
   327  00055E  AC82               	btfss	3970,6,c	;volatile
   328  000560  D016               	goto	l1197
   329                           
   330                           ;PWMcomTimerV3.c: 392: {
   331                           ;PWMcomTimerV3.c: 393: delayX(20);
   332  000562  0E00               	movlw	0
   333  000564  6E16               	movwf	delayX@n+1,c
   334  000566  0E14               	movlw	20
   335  000568  6E15               	movwf	delayX@n,c
   336  00056A  EC7D  F003         	call	_delayX	;wreg free
   337                           
   338                           ;PWMcomTimerV3.c: 395: velocidade++;
   339  00056E  4A32               	infsnz	_velocidade,f,c
   340  000570  2A33               	incf	_velocidade+1,f,c
   341                           
   342                           ;PWMcomTimerV3.c: 396: velocidade = velocidade%3;
   343  000572  C032  F015         	movff	_velocidade,___awmod@dividend
   344  000576  C033  F016         	movff	_velocidade+1,___awmod@dividend+1
   345  00057A  0E00               	movlw	0
   346  00057C  6E18               	movwf	___awmod@divisor+1,c
   347  00057E  0E03               	movlw	3
   348  000580  6E17               	movwf	___awmod@divisor,c
   349  000582  EC05  F002         	call	___awmod	;wreg free
   350  000586  C015  F032         	movff	?___awmod,_velocidade
   351  00058A  C016  F033         	movff	?___awmod+1,_velocidade+1
   352  00058E                     l1197:
   353                           
   354                           ;PWMcomTimerV3.c: 397: }
   355                           ;PWMcomTimerV3.c: 398: if(running){
   356  00058E  5030               	movf	_running,w,c
   357  000590  1031               	iorwf	_running+1,w,c
   358  000592  B4D8               	btfsc	status,2,c
   359  000594  D00E               	goto	l1203
   360                           
   361                           ;PWMcomTimerV3.c: 399: ativaModo(modo, direcao);
   362  000596  C02E  F01B         	movff	_modo,ativaModo@Modo
   363  00059A  C02F  F01C         	movff	_modo+1,ativaModo@Modo+1
   364  00059E  C02C  F01D         	movff	_direcao,ativaModo@dir
   365  0005A2  C02D  F01E         	movff	_direcao+1,ativaModo@dir+1
   366  0005A6  EC9D  F000         	call	_ativaModo	;wreg free
   367                           
   368                           ;PWMcomTimerV3.c: 400: running = 0;
   369  0005AA  0E00               	movlw	0
   370  0005AC  6E31               	movwf	_running+1,c
   371  0005AE  0E00               	movlw	0
   372  0005B0  6E30               	movwf	_running,c
   373  0005B2                     l1203:
   374                           
   375                           ;PWMcomTimerV3.c: 401: }
   376                           ;PWMcomTimerV3.c: 402: attLeds();
   377  0005B2  EC75  F002         	call	_attLeds	;wreg free
   378  0005B6  D7D3               	goto	l1189
   379  0005B8                     __end_of_main:
   380                           	opt stack 0
   381                           tblptru	equ	0xFF8
   382                           tblptrh	equ	0xFF7
   383                           tblptrl	equ	0xFF6
   384                           tablat	equ	0xFF5
   385                           postinc0	equ	0xFEE
   386                           wreg	equ	0xFE8
   387                           postdec1	equ	0xFE5
   388                           fsr1l	equ	0xFE1
   389                           status	equ	0xFD8
   390                           
   391 ;; *************** function _setup *****************
   392 ;; Defined at:
   393 ;;		line 111 in file "PWMcomTimerV3.c"
   394 ;; Parameters:    Size  Location     Type
   395 ;;		None
   396 ;; Auto vars:     Size  Location     Type
   397 ;;		None
   398 ;; Return value:  Size  Location     Type
   399 ;;                  1    wreg      void 
   400 ;; Registers used:
   401 ;;		None
   402 ;; Tracked objects:
   403 ;;		On entry : 0/0
   404 ;;		On exit  : 0/0
   405 ;;		Unchanged: 0/0
   406 ;; Data sizes:     COMRAM   BANK0   BANK1   BANK2   BANK3   BANK4   BANK5
   407 ;;      Params:         0       0       0       0       0       0       0
   408 ;;      Locals:         0       0       0       0       0       0       0
   409 ;;      Temps:          0       0       0       0       0       0       0
   410 ;;      Totals:         0       0       0       0       0       0       0
   411 ;;Total ram usage:        0 bytes
   412 ;; Hardware stack levels used:    1
   413 ;; Hardware stack levels required when called:    2
   414 ;; This function calls:
   415 ;;		Nothing
   416 ;; This function is called by:
   417 ;;		_main
   418 ;; This function uses a non-reentrant model
   419 ;;
   420                           
   421                           	psect	text1
   422  000670                     __ptext1:
   423                           	opt stack 0
   424  000670                     _setup:
   425                           	opt stack 28
   426                           
   427                           ;PWMcomTimerV3.c: 114: T0CONbits.TMR0ON = 0;
   428                           
   429                           ;incstack = 0
   430  000670  9ED5               	bcf	4053,7,c	;volatile
   431                           
   432                           ;PWMcomTimerV3.c: 115: T0CONbits.T0CS = 0;
   433  000672  9AD5               	bcf	4053,5,c	;volatile
   434                           
   435                           ;PWMcomTimerV3.c: 116: T0CONbits.PSA = 0;
   436  000674  96D5               	bcf	4053,3,c	;volatile
   437                           
   438                           ;PWMcomTimerV3.c: 117: T0CONbits.T0PS0 = 0;
   439  000676  90D5               	bcf	4053,0,c	;volatile
   440                           
   441                           ;PWMcomTimerV3.c: 118: T0CONbits.T0PS1 = 0;
   442  000678  92D5               	bcf	4053,1,c	;volatile
   443                           
   444                           ;PWMcomTimerV3.c: 119: T0CONbits.T0PS2 = 0;
   445  00067A  94D5               	bcf	4053,2,c	;volatile
   446                           
   447                           ;PWMcomTimerV3.c: 120: T0CONbits.T08BIT = 1;
   448  00067C  8CD5               	bsf	4053,6,c	;volatile
   449                           
   450                           ;PWMcomTimerV3.c: 121: T0CONbits.T0SE = 0;
   451  00067E  98D5               	bcf	4053,4,c	;volatile
   452                           
   453                           ;PWMcomTimerV3.c: 124: INTCONbits.TMR0IE = 1;
   454  000680  8AF2               	bsf	intcon,5,c	;volatile
   455                           
   456                           ;PWMcomTimerV3.c: 125: INTCONbits.TMR0IF = 0;
   457  000682  94F2               	bcf	intcon,2,c	;volatile
   458                           
   459                           ;PWMcomTimerV3.c: 126: INTCONbits.GIE = 1;
   460  000684  8EF2               	bsf	intcon,7,c	;volatile
   461                           
   462                           ;PWMcomTimerV3.c: 129: INTCONbits.GIE = 1;
   463  000686  8EF2               	bsf	intcon,7,c	;volatile
   464                           
   465                           ;PWMcomTimerV3.c: 130: RCONbits.IPEN = 1;
   466  000688  8ED0               	bsf	4048,7,c	;volatile
   467                           
   468                           ;PWMcomTimerV3.c: 133: INTCONbits.INT0IE = 1;
   469  00068A  88F2               	bsf	intcon,4,c	;volatile
   470                           
   471                           ;PWMcomTimerV3.c: 134: INTCON2bits.INTEDG0 = 0;
   472  00068C  9CF1               	bcf	intcon2,6,c	;volatile
   473                           
   474                           ;PWMcomTimerV3.c: 135: INTCONbits.INT0IF = 0;
   475  00068E  92F2               	bcf	intcon,1,c	;volatile
   476                           
   477                           ;PWMcomTimerV3.c: 137: INTCON3bits.INT1IE = 1;
   478  000690  86F0               	bsf	intcon3,3,c	;volatile
   479                           
   480                           ;PWMcomTimerV3.c: 138: INTCON2bits.INTEDG1 = 0;
   481  000692  9AF1               	bcf	intcon2,5,c	;volatile
   482                           
   483                           ;PWMcomTimerV3.c: 139: INTCON3bits.INT1IF = 0;
   484  000694  90F0               	bcf	intcon3,0,c	;volatile
   485                           
   486                           ;PWMcomTimerV3.c: 141: INTCON3bits.INT2IE = 1;
   487  000696  88F0               	bsf	intcon3,4,c	;volatile
   488                           
   489                           ;PWMcomTimerV3.c: 142: INTCON2bits.INTEDG2 = 0;
   490  000698  98F1               	bcf	intcon2,4,c	;volatile
   491                           
   492                           ;PWMcomTimerV3.c: 143: INTCON3bits.INT2IF = 0;
   493  00069A  92F0               	bcf	intcon3,1,c	;volatile
   494                           
   495                           ;PWMcomTimerV3.c: 146: TRISD0 = 0;
   496  00069C  9095               	bcf	3989,0,c	;volatile
   497                           
   498                           ;PWMcomTimerV3.c: 147: TRISD1 = 0;
   499  00069E  9295               	bcf	3989,1,c	;volatile
   500                           
   501                           ;PWMcomTimerV3.c: 149: TRISD2 = 0;
   502  0006A0  9495               	bcf	3989,2,c	;volatile
   503                           
   504                           ;PWMcomTimerV3.c: 151: TRISD3 = 0;
   505  0006A2  9695               	bcf	3989,3,c	;volatile
   506                           
   507                           ;PWMcomTimerV3.c: 153: TRISD4 = 0;
   508  0006A4  9895               	bcf	3989,4,c	;volatile
   509                           
   510                           ;PWMcomTimerV3.c: 154: TRISD5 = 0;
   511  0006A6  9A95               	bcf	3989,5,c	;volatile
   512                           
   513                           ;PWMcomTimerV3.c: 156: TRISD6 = 0;
   514  0006A8  9C95               	bcf	3989,6,c	;volatile
   515                           
   516                           ;PWMcomTimerV3.c: 157: TRISD7 = 0;
   517  0006AA  9E95               	bcf	3989,7,c	;volatile
   518                           
   519                           ;PWMcomTimerV3.c: 160: TRISC6 = 1;
   520  0006AC  8C94               	bsf	3988,6,c	;volatile
   521                           
   522                           ;PWMcomTimerV3.c: 162: TRISB0 = 1;
   523  0006AE  8093               	bsf	3987,0,c	;volatile
   524                           
   525                           ;PWMcomTimerV3.c: 164: TRISB1 = 1;
   526  0006B0  8293               	bsf	3987,1,c	;volatile
   527                           
   528                           ;PWMcomTimerV3.c: 165: TRISB2 = 1;
   529  0006B2  8493               	bsf	3987,2,c	;volatile
   530                           
   531                           ;PWMcomTimerV3.c: 167: TRISC7 = 0;
   532  0006B4  9E94               	bcf	3988,7,c	;volatile
   533                           
   534                           ;PWMcomTimerV3.c: 170: TRISC1 = 0;
   535  0006B6  9294               	bcf	3988,1,c	;volatile
   536                           
   537                           ;PWMcomTimerV3.c: 171: TRISC2 = 0;
   538  0006B8  9494               	bcf	3988,2,c	;volatile
   539                           
   540                           ;PWMcomTimerV3.c: 175: TRISC4 = 0;
   541  0006BA  9894               	bcf	3988,4,c	;volatile
   542                           
   543                           ;PWMcomTimerV3.c: 176: TRISC5 = 0;
   544  0006BC  9A94               	bcf	3988,5,c	;volatile
   545  0006BE  0012               	return		;funcret
   546  0006C0                     __end_of_setup:
   547                           	opt stack 0
   548                           tblptru	equ	0xFF8
   549                           tblptrh	equ	0xFF7
   550                           tblptrl	equ	0xFF6
   551                           tablat	equ	0xFF5
   552                           intcon	equ	0xFF2
   553                           intcon2	equ	0xFF1
   554                           intcon3	equ	0xFF0
   555                           postinc0	equ	0xFEE
   556                           wreg	equ	0xFE8
   557                           postdec1	equ	0xFE5
   558                           fsr1l	equ	0xFE1
   559                           status	equ	0xFD8
   560                           
   561 ;; *************** function _attLeds *****************
   562 ;; Defined at:
   563 ;;		line 180 in file "PWMcomTimerV3.c"
   564 ;; Parameters:    Size  Location     Type
   565 ;;		None
   566 ;; Auto vars:     Size  Location     Type
   567 ;;		None
   568 ;; Return value:  Size  Location     Type
   569 ;;                  1    wreg      void 
   570 ;; Registers used:
   571 ;;		wreg, status,2, status,0
   572 ;; Tracked objects:
   573 ;;		On entry : 0/0
   574 ;;		On exit  : 0/0
   575 ;;		Unchanged: 0/0
   576 ;; Data sizes:     COMRAM   BANK0   BANK1   BANK2   BANK3   BANK4   BANK5
   577 ;;      Params:         0       0       0       0       0       0       0
   578 ;;      Locals:         0       0       0       0       0       0       0
   579 ;;      Temps:          0       0       0       0       0       0       0
   580 ;;      Totals:         0       0       0       0       0       0       0
   581 ;;Total ram usage:        0 bytes
   582 ;; Hardware stack levels used:    1
   583 ;; Hardware stack levels required when called:    2
   584 ;; This function calls:
   585 ;;		Nothing
   586 ;; This function is called by:
   587 ;;		_main
   588 ;; This function uses a non-reentrant model
   589 ;;
   590                           
   591                           	psect	text2
   592  0004EA                     __ptext2:
   593                           	opt stack 0
   594  0004EA                     _attLeds:
   595                           	opt stack 28
   596                           
   597                           ;PWMcomTimerV3.c: 181: if(velocidade == 0){
   598                           
   599                           ;incstack = 0
   600  0004EA  5032               	movf	_velocidade,w,c
   601  0004EC  1033               	iorwf	_velocidade+1,w,c
   602  0004EE  A4D8               	btfss	status,2,c
   603  0004F0  D003               	goto	l807
   604                           
   605                           ;PWMcomTimerV3.c: 182: LATD0 = 1;
   606  0004F2  808C               	bsf	3980,0,c	;volatile
   607                           
   608                           ;PWMcomTimerV3.c: 183: LATD1 = 0;
   609  0004F4  928C               	bcf	3980,1,c	;volatile
   610                           
   611                           ;PWMcomTimerV3.c: 184: }
   612  0004F6  D00D               	goto	l815
   613  0004F8                     l807:
   614                           
   615                           ;PWMcomTimerV3.c: 185: else if(velocidade == 1){
   616  0004F8  0432               	decf	_velocidade,w,c
   617  0004FA  1033               	iorwf	_velocidade+1,w,c
   618  0004FC  A4D8               	btfss	status,2,c
   619  0004FE  D002               	goto	l811
   620                           
   621                           ;PWMcomTimerV3.c: 186: LATD0 = 0;
   622  000500  908C               	bcf	3980,0,c	;volatile
   623  000502  D006               	goto	L1
   624  000504                     l811:
   625                           
   626                           ;PWMcomTimerV3.c: 189: else if(velocidade == 2){
   627  000504  0E02               	movlw	2
   628  000506  1832               	xorwf	_velocidade,w,c
   629  000508  1033               	iorwf	_velocidade+1,w,c
   630  00050A  A4D8               	btfss	status,2,c
   631  00050C  D002               	goto	l815
   632                           
   633                           ;PWMcomTimerV3.c: 190: LATD0 = 1;
   634  00050E  808C               	bsf	3980,0,c	;volatile
   635  000510                     L1:
   636                           
   637                           ;PWMcomTimerV3.c: 191: LATD1 = 1;
   638  000510  828C               	bsf	3980,1,c	;volatile
   639  000512                     l815:
   640                           
   641                           ;PWMcomTimerV3.c: 192: }
   642                           ;PWMcomTimerV3.c: 194: if(running){
   643  000512  5030               	movf	_running,w,c
   644  000514  1031               	iorwf	_running+1,w,c
   645  000516  B4D8               	btfsc	status,2,c
   646  000518  D002               	goto	l95
   647                           
   648                           ;PWMcomTimerV3.c: 195: LATD2 = 1;
   649  00051A  848C               	bsf	3980,2,c	;volatile
   650                           
   651                           ;PWMcomTimerV3.c: 196: }
   652  00051C  D001               	goto	l96
   653  00051E                     l95:
   654                           
   655                           ;PWMcomTimerV3.c: 197: else{
   656                           ;PWMcomTimerV3.c: 198: LATD2 = 0;
   657  00051E  948C               	bcf	3980,2,c	;volatile
   658  000520                     l96:
   659                           
   660                           ;PWMcomTimerV3.c: 199: }
   661                           ;PWMcomTimerV3.c: 201: LATD4 = direcao;
   662  000520  A02C               	btfss	_direcao,0,c
   663  000522  D002               	goto	u70
   664  000524  888C               	bsf	3980,4,c	;volatile
   665  000526  D001               	goto	l819
   666  000528                     u70:
   667  000528  988C               	bcf	3980,4,c	;volatile
   668  00052A                     l819:
   669                           
   670                           ;PWMcomTimerV3.c: 203: if(modo == 0){
   671  00052A  502E               	movf	_modo,w,c
   672  00052C  102F               	iorwf	_modo+1,w,c
   673  00052E  A4D8               	btfss	status,2,c
   674  000530  D003               	goto	l823
   675                           
   676                           ;PWMcomTimerV3.c: 204: LATD6 = 1;
   677  000532  8C8C               	bsf	3980,6,c	;volatile
   678                           
   679                           ;PWMcomTimerV3.c: 205: LATD7 = 0;
   680  000534  9E8C               	bcf	3980,7,c	;volatile
   681                           
   682                           ;PWMcomTimerV3.c: 206: }
   683  000536  0012               	return	
   684  000538                     l823:
   685                           
   686                           ;PWMcomTimerV3.c: 207: else if(modo == 1){
   687  000538  042E               	decf	_modo,w,c
   688  00053A  102F               	iorwf	_modo+1,w,c
   689  00053C  A4D8               	btfss	status,2,c
   690  00053E  D003               	goto	l827
   691                           
   692                           ;PWMcomTimerV3.c: 208: LATD6 = 0;
   693  000540  9C8C               	bcf	3980,6,c	;volatile
   694                           
   695                           ;PWMcomTimerV3.c: 209: LATD7 = 1;
   696  000542  8E8C               	bsf	3980,7,c	;volatile
   697                           
   698                           ;PWMcomTimerV3.c: 210: }
   699  000544  0012               	return	
   700  000546                     l827:
   701                           
   702                           ;PWMcomTimerV3.c: 211: else if(modo == 2){
   703  000546  0E02               	movlw	2
   704  000548  182E               	xorwf	_modo,w,c
   705  00054A  102F               	iorwf	_modo+1,w,c
   706  00054C  A4D8               	btfss	status,2,c
   707  00054E  0012               	return	
   708                           
   709                           ;PWMcomTimerV3.c: 212: LATD6 = 1;
   710  000550  8C8C               	bsf	3980,6,c	;volatile
   711                           
   712                           ;PWMcomTimerV3.c: 213: LATD7 = 1;
   713  000552  8E8C               	bsf	3980,7,c	;volatile
   714  000554  0012               	return	
   715  000556                     __end_of_attLeds:
   716                           	opt stack 0
   717                           tblptru	equ	0xFF8
   718                           tblptrh	equ	0xFF7
   719                           tblptrl	equ	0xFF6
   720                           tablat	equ	0xFF5
   721                           intcon	equ	0xFF2
   722                           intcon2	equ	0xFF1
   723                           intcon3	equ	0xFF0
   724                           postinc0	equ	0xFEE
   725                           wreg	equ	0xFE8
   726                           postdec1	equ	0xFE5
   727                           fsr1l	equ	0xFE1
   728                           status	equ	0xFD8
   729                           
   730 ;; *************** function _ativaModo *****************
   731 ;; Defined at:
   732 ;;		line 303 in file "PWMcomTimerV3.c"
   733 ;; Parameters:    Size  Location     Type
   734 ;;  Modo            2   26[COMRAM] int 
   735 ;;  dir             2   28[COMRAM] int 
   736 ;; Auto vars:     Size  Location     Type
   737 ;;  i               2   34[COMRAM] int 
   738 ;;  i               2   32[COMRAM] int 
   739 ;; Return value:  Size  Location     Type
   740 ;;                  1    wreg      void 
   741 ;; Registers used:
   742 ;;		wreg, status,2, status,0, cstack
   743 ;; Tracked objects:
   744 ;;		On entry : 0/0
   745 ;;		On exit  : 0/0
   746 ;;		Unchanged: 0/0
   747 ;; Data sizes:     COMRAM   BANK0   BANK1   BANK2   BANK3   BANK4   BANK5
   748 ;;      Params:         4       0       0       0       0       0       0
   749 ;;      Locals:         4       0       0       0       0       0       0
   750 ;;      Temps:          2       0       0       0       0       0       0
   751 ;;      Totals:        10       0       0       0       0       0       0
   752 ;;Total ram usage:       10 bytes
   753 ;; Hardware stack levels used:    1
   754 ;; Hardware stack levels required when called:    3
   755 ;; This function calls:
   756 ;;		_Direction
   757 ;;		_SetPWM
   758 ;;		_delayX
   759 ;; This function is called by:
   760 ;;		_main
   761 ;; This function uses a non-reentrant model
   762 ;;
   763                           
   764                           	psect	text3
   765  00013A                     __ptext3:
   766                           	opt stack 0
   767  00013A                     _ativaModo:
   768                           	opt stack 27
   769                           
   770                           ;PWMcomTimerV3.c: 305: switch(Modo)
   771                           
   772                           ;incstack = 0
   773  00013A  D153               	goto	l1107
   774  00013C                     l1067:
   775                           
   776                           ;PWMcomTimerV3.c: 308: if(dir == 0)
   777  00013C  501D               	movf	ativaModo@dir,w,c
   778  00013E  101E               	iorwf	ativaModo@dir+1,w,c
   779  000140  A4D8               	btfss	status,2,c
   780  000142  D021               	goto	l1071
   781                           
   782                           ;PWMcomTimerV3.c: 309: {
   783                           ;PWMcomTimerV3.c: 310: Direction(frente);
   784  000144  0E00               	movlw	0
   785  000146  6E16               	movwf	Direction@dir+1,c
   786  000148  0E00               	movlw	0
   787  00014A  6E15               	movwf	Direction@dir,c
   788  00014C  EC0D  F003         	call	_Direction	;wreg free
   789                           
   790                           ;PWMcomTimerV3.c: 311: SetPWM(1,velocidade);
   791  000150  0E00               	movlw	0
   792  000152  6E16               	movwf	SetPWM@status+1,c
   793  000154  0E01               	movlw	1
   794  000156  6E15               	movwf	SetPWM@status,c
   795  000158  C032  F017         	movff	_velocidade,SetPWM@veloc
   796  00015C  C033  F018         	movff	_velocidade+1,SetPWM@veloc+1
   797  000160  ECDC  F002         	call	_SetPWM	;wreg free
   798                           
   799                           ;PWMcomTimerV3.c: 312: delayX(100);
   800  000164  0E00               	movlw	0
   801  000166  6E16               	movwf	delayX@n+1,c
   802  000168  0E64               	movlw	100
   803  00016A  6E15               	movwf	delayX@n,c
   804  00016C  EC7D  F003         	call	_delayX	;wreg free
   805                           
   806                           ;PWMcomTimerV3.c: 313: SetPWM(0,velocidade);
   807  000170  0E00               	movlw	0
   808  000172  6E16               	movwf	SetPWM@status+1,c
   809  000174  0E00               	movlw	0
   810  000176  6E15               	movwf	SetPWM@status,c
   811  000178  C032  F017         	movff	_velocidade,SetPWM@veloc
   812  00017C  C033  F018         	movff	_velocidade+1,SetPWM@veloc+1
   813  000180  ECDC  F002         	call	_SetPWM	;wreg free
   814                           
   815                           ;PWMcomTimerV3.c: 314: }
   816  000184  0012               	return	
   817  000186                     l1071:
   818                           
   819                           ;PWMcomTimerV3.c: 315: else
   820                           ;PWMcomTimerV3.c: 316: {
   821                           ;PWMcomTimerV3.c: 317: Direction(tras);
   822  000186  0E00               	movlw	0
   823  000188  6E16               	movwf	Direction@dir+1,c
   824  00018A  0E01               	movlw	1
   825  00018C  6E15               	movwf	Direction@dir,c
   826  00018E  EC0D  F003         	call	_Direction	;wreg free
   827                           
   828                           ;PWMcomTimerV3.c: 318: SetPWM(1,velocidade);
   829  000192  0E00               	movlw	0
   830  000194  6E16               	movwf	SetPWM@status+1,c
   831  000196  0E01               	movlw	1
   832  000198  6E15               	movwf	SetPWM@status,c
   833  00019A  C032  F017         	movff	_velocidade,SetPWM@veloc
   834  00019E  C033  F018         	movff	_velocidade+1,SetPWM@veloc+1
   835  0001A2  ECDC  F002         	call	_SetPWM	;wreg free
   836                           
   837                           ;PWMcomTimerV3.c: 319: delayX(100);
   838  0001A6  0E00               	movlw	0
   839  0001A8  6E16               	movwf	delayX@n+1,c
   840  0001AA  0E64               	movlw	100
   841  0001AC  6E15               	movwf	delayX@n,c
   842  0001AE  EC7D  F003         	call	_delayX	;wreg free
   843                           
   844                           ;PWMcomTimerV3.c: 320: SetPWM(0,velocidade);
   845  0001B2  0E00               	movlw	0
   846  0001B4  6E16               	movwf	SetPWM@status+1,c
   847  0001B6  0E00               	movlw	0
   848  0001B8  6E15               	movwf	SetPWM@status,c
   849  0001BA  C032  F017         	movff	_velocidade,SetPWM@veloc
   850  0001BE  C033  F018         	movff	_velocidade+1,SetPWM@veloc+1
   851  0001C2  ECDC  F002         	call	_SetPWM	;wreg free
   852                           
   853                           ;PWMcomTimerV3.c: 321: }
   854                           ;PWMcomTimerV3.c: 322: break;
   855  0001C6  0012               	return	
   856  0001C8                     l1073:
   857                           
   858                           ;PWMcomTimerV3.c: 325: if(dir == 0)
   859  0001C8  501D               	movf	ativaModo@dir,w,c
   860  0001CA  101E               	iorwf	ativaModo@dir+1,w,c
   861  0001CC  A4D8               	btfss	status,2,c
   862  0001CE  D062               	goto	l1087
   863                           
   864                           ;PWMcomTimerV3.c: 326: {
   865                           ;PWMcomTimerV3.c: 327: for(int i = 0; i < 4; i++)
   866  0001D0  0E00               	movlw	0
   867  0001D2  6E22               	movwf	ativaModo@i+1,c
   868  0001D4  0E00               	movlw	0
   869  0001D6  6E21               	movwf	ativaModo@i,c
   870  0001D8  BE22               	btfsc	ativaModo@i+1,7,c
   871  0001DA  D008               	goto	l1081
   872  0001DC  5022               	movf	ativaModo@i+1,w,c
   873  0001DE  E105               	bnz	u500
   874  0001E0  0E04               	movlw	4
   875  0001E2  5C21               	subwf	ativaModo@i,w,c
   876  0001E4  B0D8               	btfsc	status,0,c
   877  0001E6  0012               	return	
   878  0001E8  D001               	goto	l1081
   879  0001EA                     u500:
   880  0001EA  0012               	return	
   881  0001EC                     l1081:
   882                           
   883                           ;PWMcomTimerV3.c: 328: {
   884                           ;PWMcomTimerV3.c: 329: Direction(frente);
   885  0001EC  0E00               	movlw	0
   886  0001EE  6E16               	movwf	Direction@dir+1,c
   887  0001F0  0E00               	movlw	0
   888  0001F2  6E15               	movwf	Direction@dir,c
   889  0001F4  EC0D  F003         	call	_Direction	;wreg free
   890                           
   891                           ;PWMcomTimerV3.c: 330: SetPWM(1,velocidade);
   892  0001F8  0E00               	movlw	0
   893  0001FA  6E16               	movwf	SetPWM@status+1,c
   894  0001FC  0E01               	movlw	1
   895  0001FE  6E15               	movwf	SetPWM@status,c
   896  000200  C032  F017         	movff	_velocidade,SetPWM@veloc
   897  000204  C033  F018         	movff	_velocidade+1,SetPWM@veloc+1
   898  000208  ECDC  F002         	call	_SetPWM	;wreg free
   899                           
   900                           ;PWMcomTimerV3.c: 331: delayX(100);
   901  00020C  0E00               	movlw	0
   902  00020E  6E16               	movwf	delayX@n+1,c
   903  000210  0E64               	movlw	100
   904  000212  6E15               	movwf	delayX@n,c
   905  000214  EC7D  F003         	call	_delayX	;wreg free
   906                           
   907                           ;PWMcomTimerV3.c: 333: SetPWM(0,velocidade);
   908  000218  0E00               	movlw	0
   909  00021A  6E16               	movwf	SetPWM@status+1,c
   910  00021C  0E00               	movlw	0
   911  00021E  6E15               	movwf	SetPWM@status,c
   912  000220  C032  F017         	movff	_velocidade,SetPWM@veloc
   913  000224  C033  F018         	movff	_velocidade+1,SetPWM@veloc+1
   914  000228  ECDC  F002         	call	_SetPWM	;wreg free
   915                           
   916                           ;PWMcomTimerV3.c: 334: delayX(10);
   917  00022C  0E00               	movlw	0
   918  00022E  6E16               	movwf	delayX@n+1,c
   919  000230  0E0A               	movlw	10
   920  000232  6E15               	movwf	delayX@n,c
   921  000234  EC7D  F003         	call	_delayX	;wreg free
   922                           
   923                           ;PWMcomTimerV3.c: 336: Direction(direita);
   924  000238  0E00               	movlw	0
   925  00023A  6E16               	movwf	Direction@dir+1,c
   926  00023C  0E03               	movlw	3
   927  00023E  6E15               	movwf	Direction@dir,c
   928  000240  EC0D  F003         	call	_Direction	;wreg free
   929                           
   930                           ;PWMcomTimerV3.c: 337: SetPWM(1,velocidade);
   931  000244  0E00               	movlw	0
   932  000246  6E16               	movwf	SetPWM@status+1,c
   933  000248  0E01               	movlw	1
   934  00024A  6E15               	movwf	SetPWM@status,c
   935  00024C  C032  F017         	movff	_velocidade,SetPWM@veloc
   936  000250  C033  F018         	movff	_velocidade+1,SetPWM@veloc+1
   937  000254  ECDC  F002         	call	_SetPWM	;wreg free
   938                           
   939                           ;PWMcomTimerV3.c: 338: delayX(50);
   940  000258  0E00               	movlw	0
   941  00025A  6E16               	movwf	delayX@n+1,c
   942  00025C  0E32               	movlw	50
   943  00025E  6E15               	movwf	delayX@n,c
   944  000260  EC7D  F003         	call	_delayX	;wreg free
   945                           
   946                           ;PWMcomTimerV3.c: 340: SetPWM(0,velocidade);
   947  000264  0E00               	movlw	0
   948  000266  6E16               	movwf	SetPWM@status+1,c
   949  000268  0E00               	movlw	0
   950  00026A  6E15               	movwf	SetPWM@status,c
   951  00026C  C032  F017         	movff	_velocidade,SetPWM@veloc
   952  000270  C033  F018         	movff	_velocidade+1,SetPWM@veloc+1
   953  000274  ECDC  F002         	call	_SetPWM	;wreg free
   954                           
   955                           ;PWMcomTimerV3.c: 341: delayX(10);
   956  000278  0E00               	movlw	0
   957  00027A  6E16               	movwf	delayX@n+1,c
   958  00027C  0E0A               	movlw	10
   959  00027E  6E15               	movwf	delayX@n,c
   960  000280  EC7D  F003         	call	_delayX	;wreg free
   961  000284  4A21               	infsnz	ativaModo@i,f,c
   962  000286  2A22               	incf	ativaModo@i+1,f,c
   963  000288  BE22               	btfsc	ativaModo@i+1,7,c
   964  00028A  D7B0               	goto	l1081
   965  00028C  5022               	movf	ativaModo@i+1,w,c
   966  00028E  E101               	bnz	u510
   967  000290  D7A7               	goto	L2
   968  000292                     u510:
   969                           
   970                           ;PWMcomTimerV3.c: 342: }
   971                           ;PWMcomTimerV3.c: 343: }
   972  000292  0012               	return	
   973  000294                     l1087:
   974                           
   975                           ;PWMcomTimerV3.c: 344: else
   976                           ;PWMcomTimerV3.c: 345: {
   977                           ;PWMcomTimerV3.c: 346: for(int i = 0; i < 4; i++)
   978  000294  0E00               	movlw	0
   979  000296  6E24               	movwf	ativaModo@i_433+1,c
   980  000298  0E00               	movlw	0
   981  00029A  6E23               	movwf	ativaModo@i_433,c
   982  00029C  BE24               	btfsc	ativaModo@i_433+1,7,c
   983  00029E  D008               	goto	l1093
   984  0002A0  5024               	movf	ativaModo@i_433+1,w,c
   985  0002A2  E105               	bnz	u520
   986  0002A4  0E04               	movlw	4
   987  0002A6  5C23               	subwf	ativaModo@i_433,w,c
   988  0002A8  B0D8               	btfsc	status,0,c
   989  0002AA  0012               	return	
   990  0002AC  D001               	goto	l1093
   991  0002AE                     u520:
   992  0002AE  0012               	return	
   993  0002B0                     l1093:
   994                           
   995                           ;PWMcomTimerV3.c: 347: {
   996                           ;PWMcomTimerV3.c: 348: Direction(frente);
   997  0002B0  0E00               	movlw	0
   998  0002B2  6E16               	movwf	Direction@dir+1,c
   999  0002B4  0E00               	movlw	0
  1000  0002B6  6E15               	movwf	Direction@dir,c
  1001  0002B8  EC0D  F003         	call	_Direction	;wreg free
  1002                           
  1003                           ;PWMcomTimerV3.c: 349: SetPWM(1,velocidade);
  1004  0002BC  0E00               	movlw	0
  1005  0002BE  6E16               	movwf	SetPWM@status+1,c
  1006  0002C0  0E01               	movlw	1
  1007  0002C2  6E15               	movwf	SetPWM@status,c
  1008  0002C4  C032  F017         	movff	_velocidade,SetPWM@veloc
  1009  0002C8  C033  F018         	movff	_velocidade+1,SetPWM@veloc+1
  1010  0002CC  ECDC  F002         	call	_SetPWM	;wreg free
  1011                           
  1012                           ;PWMcomTimerV3.c: 350: delayX(100);
  1013  0002D0  0E00               	movlw	0
  1014  0002D2  6E16               	movwf	delayX@n+1,c
  1015  0002D4  0E64               	movlw	100
  1016  0002D6  6E15               	movwf	delayX@n,c
  1017  0002D8  EC7D  F003         	call	_delayX	;wreg free
  1018                           
  1019                           ;PWMcomTimerV3.c: 352: SetPWM(0,velocidade);
  1020  0002DC  0E00               	movlw	0
  1021  0002DE  6E16               	movwf	SetPWM@status+1,c
  1022  0002E0  0E00               	movlw	0
  1023  0002E2  6E15               	movwf	SetPWM@status,c
  1024  0002E4  C032  F017         	movff	_velocidade,SetPWM@veloc
  1025  0002E8  C033  F018         	movff	_velocidade+1,SetPWM@veloc+1
  1026  0002EC  ECDC  F002         	call	_SetPWM	;wreg free
  1027                           
  1028                           ;PWMcomTimerV3.c: 353: delayX(10);
  1029  0002F0  0E00               	movlw	0
  1030  0002F2  6E16               	movwf	delayX@n+1,c
  1031  0002F4  0E0A               	movlw	10
  1032  0002F6  6E15               	movwf	delayX@n,c
  1033  0002F8  EC7D  F003         	call	_delayX	;wreg free
  1034                           
  1035                           ;PWMcomTimerV3.c: 355: Direction(esquerda);
  1036  0002FC  0E00               	movlw	0
  1037  0002FE  6E16               	movwf	Direction@dir+1,c
  1038  000300  0E02               	movlw	2
  1039  000302  6E15               	movwf	Direction@dir,c
  1040  000304  EC0D  F003         	call	_Direction	;wreg free
  1041                           
  1042                           ;PWMcomTimerV3.c: 356: SetPWM(1,velocidade);
  1043  000308  0E00               	movlw	0
  1044  00030A  6E16               	movwf	SetPWM@status+1,c
  1045  00030C  0E01               	movlw	1
  1046  00030E  6E15               	movwf	SetPWM@status,c
  1047  000310  C032  F017         	movff	_velocidade,SetPWM@veloc
  1048  000314  C033  F018         	movff	_velocidade+1,SetPWM@veloc+1
  1049  000318  ECDC  F002         	call	_SetPWM	;wreg free
  1050                           
  1051                           ;PWMcomTimerV3.c: 357: delayX(50);
  1052  00031C  0E00               	movlw	0
  1053  00031E  6E16               	movwf	delayX@n+1,c
  1054  000320  0E32               	movlw	50
  1055  000322  6E15               	movwf	delayX@n,c
  1056  000324  EC7D  F003         	call	_delayX	;wreg free
  1057                           
  1058                           ;PWMcomTimerV3.c: 359: SetPWM(0,velocidade);
  1059  000328  0E00               	movlw	0
  1060  00032A  6E16               	movwf	SetPWM@status+1,c
  1061  00032C  0E00               	movlw	0
  1062  00032E  6E15               	movwf	SetPWM@status,c
  1063  000330  C032  F017         	movff	_velocidade,SetPWM@veloc
  1064  000334  C033  F018         	movff	_velocidade+1,SetPWM@veloc+1
  1065  000338  ECDC  F002         	call	_SetPWM	;wreg free
  1066                           
  1067                           ;PWMcomTimerV3.c: 360: delayX(10);
  1068  00033C  0E00               	movlw	0
  1069  00033E  6E16               	movwf	delayX@n+1,c
  1070  000340  0E0A               	movlw	10
  1071  000342  6E15               	movwf	delayX@n,c
  1072  000344  EC7D  F003         	call	_delayX	;wreg free
  1073  000348  4A23               	infsnz	ativaModo@i_433,f,c
  1074  00034A  2A24               	incf	ativaModo@i_433+1,f,c
  1075  00034C  BE24               	btfsc	ativaModo@i_433+1,7,c
  1076  00034E  D7B0               	goto	l1093
  1077  000350  5024               	movf	ativaModo@i_433+1,w,c
  1078  000352  E15A               	bnz	l146
  1079  000354  D7A7               	goto	L3
  1080  000356                     l1099:
  1081                           
  1082                           ;PWMcomTimerV3.c: 366: if(dir == 0)
  1083  000356  501D               	movf	ativaModo@dir,w,c
  1084  000358  101E               	iorwf	ativaModo@dir+1,w,c
  1085  00035A  A4D8               	btfss	status,2,c
  1086  00035C  D021               	goto	l1103
  1087                           
  1088                           ;PWMcomTimerV3.c: 367: {
  1089                           ;PWMcomTimerV3.c: 368: Direction(direita);
  1090  00035E  0E00               	movlw	0
  1091  000360  6E16               	movwf	Direction@dir+1,c
  1092  000362  0E03               	movlw	3
  1093  000364  6E15               	movwf	Direction@dir,c
  1094  000366  EC0D  F003         	call	_Direction	;wreg free
  1095                           
  1096                           ;PWMcomTimerV3.c: 369: SetPWM(1,velocidade);
  1097  00036A  0E00               	movlw	0
  1098  00036C  6E16               	movwf	SetPWM@status+1,c
  1099  00036E  0E01               	movlw	1
  1100  000370  6E15               	movwf	SetPWM@status,c
  1101  000372  C032  F017         	movff	_velocidade,SetPWM@veloc
  1102  000376  C033  F018         	movff	_velocidade+1,SetPWM@veloc+1
  1103  00037A  ECDC  F002         	call	_SetPWM	;wreg free
  1104                           
  1105                           ;PWMcomTimerV3.c: 370: delayX(200);
  1106  00037E  0E00               	movlw	0
  1107  000380  6E16               	movwf	delayX@n+1,c
  1108  000382  0EC8               	movlw	200
  1109  000384  6E15               	movwf	delayX@n,c
  1110  000386  EC7D  F003         	call	_delayX	;wreg free
  1111                           
  1112                           ;PWMcomTimerV3.c: 371: SetPWM(0,velocidade);
  1113  00038A  0E00               	movlw	0
  1114  00038C  6E16               	movwf	SetPWM@status+1,c
  1115  00038E  0E00               	movlw	0
  1116  000390  6E15               	movwf	SetPWM@status,c
  1117  000392  C032  F017         	movff	_velocidade,SetPWM@veloc
  1118  000396  C033  F018         	movff	_velocidade+1,SetPWM@veloc+1
  1119  00039A  ECDC  F002         	call	_SetPWM	;wreg free
  1120                           
  1121                           ;PWMcomTimerV3.c: 372: }
  1122  00039E  0012               	return	
  1123  0003A0                     l1103:
  1124                           
  1125                           ;PWMcomTimerV3.c: 373: else
  1126                           ;PWMcomTimerV3.c: 374: {
  1127                           ;PWMcomTimerV3.c: 375: Direction(esquerda);
  1128  0003A0  0E00               	movlw	0
  1129  0003A2  6E16               	movwf	Direction@dir+1,c
  1130  0003A4  0E02               	movlw	2
  1131  0003A6  6E15               	movwf	Direction@dir,c
  1132  0003A8  EC0D  F003         	call	_Direction	;wreg free
  1133                           
  1134                           ;PWMcomTimerV3.c: 376: SetPWM(1,velocidade);
  1135  0003AC  0E00               	movlw	0
  1136  0003AE  6E16               	movwf	SetPWM@status+1,c
  1137  0003B0  0E01               	movlw	1
  1138  0003B2  6E15               	movwf	SetPWM@status,c
  1139  0003B4  C032  F017         	movff	_velocidade,SetPWM@veloc
  1140  0003B8  C033  F018         	movff	_velocidade+1,SetPWM@veloc+1
  1141  0003BC  ECDC  F002         	call	_SetPWM	;wreg free
  1142                           
  1143                           ;PWMcomTimerV3.c: 377: delayX(200);
  1144  0003C0  0E00               	movlw	0
  1145  0003C2  6E16               	movwf	delayX@n+1,c
  1146  0003C4  0EC8               	movlw	200
  1147  0003C6  6E15               	movwf	delayX@n,c
  1148  0003C8  EC7D  F003         	call	_delayX	;wreg free
  1149                           
  1150                           ;PWMcomTimerV3.c: 378: SetPWM(0,velocidade);
  1151  0003CC  0E00               	movlw	0
  1152  0003CE  6E16               	movwf	SetPWM@status+1,c
  1153  0003D0  0E00               	movlw	0
  1154  0003D2  6E15               	movwf	SetPWM@status,c
  1155  0003D4  C032  F017         	movff	_velocidade,SetPWM@veloc
  1156  0003D8  C033  F018         	movff	_velocidade+1,SetPWM@veloc+1
  1157  0003DC  ECDC  F002         	call	_SetPWM	;wreg free
  1158                           
  1159                           ;PWMcomTimerV3.c: 381: }
  1160                           
  1161                           ;PWMcomTimerV3.c: 379: }
  1162                           ;PWMcomTimerV3.c: 380: break;
  1163  0003E0  0012               	return	
  1164  0003E2                     l1107:
  1165  0003E2  C01B  F01F         	movff	ativaModo@Modo,??_ativaModo
  1166  0003E6  C01C  F020         	movff	ativaModo@Modo+1,??_ativaModo+1
  1167                           
  1168                           ; Switch on 2 bytes has been partitioned into a top level switch of size 1, and 1 sub-sw
      +                          itches
  1169                           ; Switch size 1, requested type "space"
  1170                           ; Number of cases is 1, Range of values is 0 to 0
  1171                           ; switch strategies available:
  1172                           ; Name         Instructions Cycles
  1173                           ; simple_byte            4     3 (average)
  1174                           ;	Chosen strategy is simple_byte
  1175  0003EA  5020               	movf	??_ativaModo+1,w,c
  1176  0003EC  0A00               	xorlw	0	; case 0
  1177  0003EE  A4D8               	btfss	status,2,c
  1178  0003F0  0012               	return	
  1179                           
  1180                           ; Switch size 1, requested type "space"
  1181                           ; Number of cases is 3, Range of values is 0 to 2
  1182                           ; switch strategies available:
  1183                           ; Name         Instructions Cycles
  1184                           ; simple_byte           10     6 (average)
  1185                           ;	Chosen strategy is simple_byte
  1186  0003F2  501F               	movf	??_ativaModo,w,c
  1187  0003F4  0A00               	xorlw	0	; case 0
  1188  0003F6  B4D8               	btfsc	status,2,c
  1189  0003F8  D6A1               	goto	l1067
  1190  0003FA  0A01               	xorlw	1	; case 1
  1191  0003FC  B4D8               	btfsc	status,2,c
  1192  0003FE  D6E4               	goto	l1073
  1193  000400  0A03               	xorlw	3	; case 2
  1194  000402  A4D8               	btfss	status,2,c
  1195  000404  0012               	return	
  1196  000406  D7A7               	goto	l1099
  1197  000408                     l146:
  1198  000408  0012               	return		;funcret
  1199  00040A                     __end_of_ativaModo:
  1200                           	opt stack 0
  1201                           tblptru	equ	0xFF8
  1202                           tblptrh	equ	0xFF7
  1203                           tblptrl	equ	0xFF6
  1204                           tablat	equ	0xFF5
  1205                           intcon	equ	0xFF2
  1206                           intcon2	equ	0xFF1
  1207                           intcon3	equ	0xFF0
  1208                           postinc0	equ	0xFEE
  1209                           wreg	equ	0xFE8
  1210                           postdec1	equ	0xFE5
  1211                           fsr1l	equ	0xFE1
  1212                           status	equ	0xFD8
  1213                           
  1214 ;; *************** function _delayX *****************
  1215 ;; Defined at:
  1216 ;;		line 218 in file "PWMcomTimerV3.c"
  1217 ;; Parameters:    Size  Location     Type
  1218 ;;  n               2   20[COMRAM] int 
  1219 ;; Auto vars:     Size  Location     Type
  1220 ;;  i               2   23[COMRAM] int 
  1221 ;; Return value:  Size  Location     Type
  1222 ;;                  1    wreg      void 
  1223 ;; Registers used:
  1224 ;;		wreg, status,2, status,0
  1225 ;; Tracked objects:
  1226 ;;		On entry : 0/0
  1227 ;;		On exit  : 0/0
  1228 ;;		Unchanged: 0/0
  1229 ;; Data sizes:     COMRAM   BANK0   BANK1   BANK2   BANK3   BANK4   BANK5
  1230 ;;      Params:         2       0       0       0       0       0       0
  1231 ;;      Locals:         2       0       0       0       0       0       0
  1232 ;;      Temps:          1       0       0       0       0       0       0
  1233 ;;      Totals:         5       0       0       0       0       0       0
  1234 ;;Total ram usage:        5 bytes
  1235 ;; Hardware stack levels used:    1
  1236 ;; Hardware stack levels required when called:    2
  1237 ;; This function calls:
  1238 ;;		Nothing
  1239 ;; This function is called by:
  1240 ;;		_ativaModo
  1241 ;;		_main
  1242 ;; This function uses a non-reentrant model
  1243 ;;
  1244                           
  1245                           	psect	text4
  1246  0006FA                     __ptext4:
  1247                           	opt stack 0
  1248  0006FA                     _delayX:
  1249                           	opt stack 28
  1250                           
  1251                           ;PWMcomTimerV3.c: 220: for(int i = 0; i < n; i++)
  1252                           
  1253                           ;incstack = 0
  1254  0006FA  0E00               	movlw	0
  1255  0006FC  6E19               	movwf	delayX@i+1,c
  1256  0006FE  0E00               	movlw	0
  1257  000700  6E18               	movwf	delayX@i,c
  1258  000702  D00B               	goto	l105
  1259  000704                     l1031:
  1260                           
  1261                           ;PWMcomTimerV3.c: 221: _delay((unsigned long)((1)*(16000000/4000.0)));
  1262  000704  0E06               	movlw	6
  1263  000706  6E17               	movwf	??_delayX& (0+255),c
  1264  000708  0E30               	movlw	48
  1265  00070A                     u827:
  1266  00070A  2EE8               	decfsz	wreg,f,c
  1267  00070C  D7FE               	goto	u827
  1268  00070E  2E17               	decfsz	??_delayX& (0+255),f,c
  1269  000710  D7FC               	goto	u827
  1270  000712  F000 F000          	nop2	
  1271  000716  4A18               	infsnz	delayX@i,f,c
  1272  000718  2A19               	incf	delayX@i+1,f,c
  1273  00071A                     l105:
  1274  00071A  5015               	movf	delayX@n,w,c
  1275  00071C  5C18               	subwf	delayX@i,w,c
  1276  00071E  5019               	movf	delayX@i+1,w,c
  1277  000720  0A80               	xorlw	128
  1278  000722  6E17               	movwf	??_delayX& (0+255),c
  1279  000724  5016               	movf	delayX@n+1,w,c
  1280  000726  0A80               	xorlw	128
  1281  000728  5817               	subwfb	??_delayX& (0+255),w,c
  1282  00072A  B0D8               	btfsc	status,0,c
  1283  00072C  0012               	return	
  1284  00072E  D7EA               	goto	l1031
  1285  000730                     __end_of_delayX:
  1286                           	opt stack 0
  1287                           tblptru	equ	0xFF8
  1288                           tblptrh	equ	0xFF7
  1289                           tblptrl	equ	0xFF6
  1290                           tablat	equ	0xFF5
  1291                           intcon	equ	0xFF2
  1292                           intcon2	equ	0xFF1
  1293                           intcon3	equ	0xFF0
  1294                           postinc0	equ	0xFEE
  1295                           wreg	equ	0xFE8
  1296                           postdec1	equ	0xFE5
  1297                           fsr1l	equ	0xFE1
  1298                           status	equ	0xFD8
  1299                           
  1300 ;; *************** function _SetPWM *****************
  1301 ;; Defined at:
  1302 ;;		line 226 in file "PWMcomTimerV3.c"
  1303 ;; Parameters:    Size  Location     Type
  1304 ;;  status          2   20[COMRAM] int 
  1305 ;;  veloc           2   22[COMRAM] int 
  1306 ;; Auto vars:     Size  Location     Type
  1307 ;;		None
  1308 ;; Return value:  Size  Location     Type
  1309 ;;                  1    wreg      void 
  1310 ;; Registers used:
  1311 ;;		wreg, status,2, status,0
  1312 ;; Tracked objects:
  1313 ;;		On entry : 0/0
  1314 ;;		On exit  : 0/0
  1315 ;;		Unchanged: 0/0
  1316 ;; Data sizes:     COMRAM   BANK0   BANK1   BANK2   BANK3   BANK4   BANK5
  1317 ;;      Params:         4       0       0       0       0       0       0
  1318 ;;      Locals:         0       0       0       0       0       0       0
  1319 ;;      Temps:          2       0       0       0       0       0       0
  1320 ;;      Totals:         6       0       0       0       0       0       0
  1321 ;;Total ram usage:        6 bytes
  1322 ;; Hardware stack levels used:    1
  1323 ;; Hardware stack levels required when called:    2
  1324 ;; This function calls:
  1325 ;;		Nothing
  1326 ;; This function is called by:
  1327 ;;		_ativaModo
  1328 ;; This function uses a non-reentrant model
  1329 ;;
  1330                           
  1331                           	psect	text5
  1332  0005B8                     __ptext5:
  1333                           	opt stack 0
  1334  0005B8                     _SetPWM:
  1335                           	opt stack 27
  1336                           
  1337                           ;PWMcomTimerV3.c: 228: if(status == 1)
  1338                           
  1339                           ;incstack = 0
  1340  0005B8  0415               	decf	SetPWM@status,w,c
  1341  0005BA  1016               	iorwf	SetPWM@status+1,w,c
  1342  0005BC  A4D8               	btfss	status,2,c
  1343  0005BE  D029               	goto	l111
  1344                           
  1345                           ;PWMcomTimerV3.c: 229: {
  1346                           ;PWMcomTimerV3.c: 230: T0CONbits.TMR0ON = 1;
  1347  0005C0  8ED5               	bsf	4053,7,c	;volatile
  1348                           
  1349                           ;PWMcomTimerV3.c: 232: switch(veloc)
  1350  0005C2  D014               	goto	l1049
  1351  0005C4                     l1039:
  1352                           
  1353                           ;PWMcomTimerV3.c: 235: off_duty = 15;
  1354  0005C4  0E00               	movlw	0
  1355  0005C6  6E37               	movwf	_off_duty+1,c
  1356  0005C8  0E0F               	movlw	15
  1357  0005CA  6E36               	movwf	_off_duty,c
  1358                           
  1359                           ;PWMcomTimerV3.c: 236: break;
  1360  0005CC  0012               	return	
  1361  0005CE                     l1041:
  1362                           
  1363                           ;PWMcomTimerV3.c: 239: off_duty = 8;
  1364  0005CE  0E00               	movlw	0
  1365  0005D0  6E37               	movwf	_off_duty+1,c
  1366  0005D2  0E08               	movlw	8
  1367  0005D4  6E36               	movwf	_off_duty,c
  1368                           
  1369                           ;PWMcomTimerV3.c: 240: break;
  1370  0005D6  0012               	return	
  1371  0005D8                     l1043:
  1372                           
  1373                           ;PWMcomTimerV3.c: 243: off_duty = 1;
  1374  0005D8  0E00               	movlw	0
  1375  0005DA  6E37               	movwf	_off_duty+1,c
  1376  0005DC  0E01               	movlw	1
  1377  0005DE  6E36               	movwf	_off_duty,c
  1378                           
  1379                           ;PWMcomTimerV3.c: 244: break;
  1380  0005E0  0012               	return	
  1381  0005E2                     l1045:
  1382                           
  1383                           ;PWMcomTimerV3.c: 247: off_duty = 1;
  1384  0005E2  0E00               	movlw	0
  1385  0005E4  6E37               	movwf	_off_duty+1,c
  1386  0005E6  0E01               	movlw	1
  1387  0005E8  6E36               	movwf	_off_duty,c
  1388                           
  1389                           ;PWMcomTimerV3.c: 249: }
  1390                           
  1391                           ;PWMcomTimerV3.c: 248: break;
  1392  0005EA  0012               	return	
  1393  0005EC                     l1049:
  1394  0005EC  C017  F019         	movff	SetPWM@veloc,??_SetPWM
  1395  0005F0  C018  F01A         	movff	SetPWM@veloc+1,??_SetPWM+1
  1396                           
  1397                           ; Switch on 2 bytes has been partitioned into a top level switch of size 1, and 1 sub-sw
      +                          itches
  1398                           ; Switch size 1, requested type "space"
  1399                           ; Number of cases is 1, Range of values is 0 to 0
  1400                           ; switch strategies available:
  1401                           ; Name         Instructions Cycles
  1402                           ; simple_byte            4     3 (average)
  1403                           ;	Chosen strategy is simple_byte
  1404  0005F4  501A               	movf	??_SetPWM+1,w,c
  1405  0005F6  0A00               	xorlw	0	; case 0
  1406  0005F8  A4D8               	btfss	status,2,c
  1407  0005FA  D7F3               	goto	l1045
  1408                           
  1409                           ; Switch size 1, requested type "space"
  1410                           ; Number of cases is 3, Range of values is 0 to 2
  1411                           ; switch strategies available:
  1412                           ; Name         Instructions Cycles
  1413                           ; simple_byte           10     6 (average)
  1414                           ;	Chosen strategy is simple_byte
  1415  0005FC  5019               	movf	??_SetPWM,w,c
  1416  0005FE  0A00               	xorlw	0	; case 0
  1417  000600  B4D8               	btfsc	status,2,c
  1418  000602  D7E0               	goto	l1039
  1419  000604  0A01               	xorlw	1	; case 1
  1420  000606  B4D8               	btfsc	status,2,c
  1421  000608  D7E2               	goto	l1041
  1422  00060A  0A03               	xorlw	3	; case 2
  1423  00060C  B4D8               	btfsc	status,2,c
  1424  00060E  D7E4               	goto	l1043
  1425  000610  D7E8               	goto	l1045
  1426  000612                     l111:
  1427                           
  1428                           ;PWMcomTimerV3.c: 251: else
  1429                           ;PWMcomTimerV3.c: 252: {
  1430                           ;PWMcomTimerV3.c: 253: RC7 = 0;
  1431  000612  9E82               	bcf	3970,7,c	;volatile
  1432                           
  1433                           ;PWMcomTimerV3.c: 254: T0CONbits.TMR0ON = 0;
  1434  000614  9ED5               	bcf	4053,7,c	;volatile
  1435                           
  1436                           ;PWMcomTimerV3.c: 255: INTCONbits.TMR0IF = 0;
  1437  000616  94F2               	bcf	intcon,2,c	;volatile
  1438  000618  0012               	return	
  1439  00061A                     __end_of_SetPWM:
  1440                           	opt stack 0
  1441                           tblptru	equ	0xFF8
  1442                           tblptrh	equ	0xFF7
  1443                           tblptrl	equ	0xFF6
  1444                           tablat	equ	0xFF5
  1445                           intcon	equ	0xFF2
  1446                           intcon2	equ	0xFF1
  1447                           intcon3	equ	0xFF0
  1448                           postinc0	equ	0xFEE
  1449                           wreg	equ	0xFE8
  1450                           postdec1	equ	0xFE5
  1451                           fsr1l	equ	0xFE1
  1452                           status	equ	0xFD8
  1453                           
  1454 ;; *************** function _Direction *****************
  1455 ;; Defined at:
  1456 ;;		line 260 in file "PWMcomTimerV3.c"
  1457 ;; Parameters:    Size  Location     Type
  1458 ;;  dir             2   20[COMRAM] int 
  1459 ;; Auto vars:     Size  Location     Type
  1460 ;;		None
  1461 ;; Return value:  Size  Location     Type
  1462 ;;                  1    wreg      void 
  1463 ;; Registers used:
  1464 ;;		wreg, status,2, status,0
  1465 ;; Tracked objects:
  1466 ;;		On entry : 0/0
  1467 ;;		On exit  : 0/0
  1468 ;;		Unchanged: 0/0
  1469 ;; Data sizes:     COMRAM   BANK0   BANK1   BANK2   BANK3   BANK4   BANK5
  1470 ;;      Params:         2       0       0       0       0       0       0
  1471 ;;      Locals:         0       0       0       0       0       0       0
  1472 ;;      Temps:          2       0       0       0       0       0       0
  1473 ;;      Totals:         4       0       0       0       0       0       0
  1474 ;;Total ram usage:        4 bytes
  1475 ;; Hardware stack levels used:    1
  1476 ;; Hardware stack levels required when called:    2
  1477 ;; This function calls:
  1478 ;;		Nothing
  1479 ;; This function is called by:
  1480 ;;		_ativaModo
  1481 ;; This function uses a non-reentrant model
  1482 ;;
  1483                           
  1484                           	psect	text6
  1485  00061A                     __ptext6:
  1486                           	opt stack 0
  1487  00061A                     _Direction:
  1488                           	opt stack 27
  1489                           
  1490                           ;PWMcomTimerV3.c: 262: switch(dir)
  1491                           
  1492                           ;incstack = 0
  1493  00061A  D014               	goto	l1059
  1494  00061C                     l123:
  1495                           
  1496                           ;PWMcomTimerV3.c: 265: RC1 = 1;
  1497  00061C  8282               	bsf	3970,1,c	;volatile
  1498                           
  1499                           ;PWMcomTimerV3.c: 266: RC2 = 0;
  1500  00061E  9482               	bcf	3970,2,c	;volatile
  1501                           
  1502                           ;PWMcomTimerV3.c: 268: RC4 = 1;
  1503  000620  8882               	bsf	3970,4,c	;volatile
  1504                           
  1505                           ;PWMcomTimerV3.c: 269: RC5 = 0;
  1506  000622  9A82               	bcf	3970,5,c	;volatile
  1507                           
  1508                           ;PWMcomTimerV3.c: 270: break;
  1509  000624  0012               	return	
  1510  000626                     l125:
  1511                           
  1512                           ;PWMcomTimerV3.c: 274: RC1 = 0;
  1513  000626  9282               	bcf	3970,1,c	;volatile
  1514                           
  1515                           ;PWMcomTimerV3.c: 275: RC2 = 1;
  1516  000628  8482               	bsf	3970,2,c	;volatile
  1517                           
  1518                           ;PWMcomTimerV3.c: 277: RC4 = 0;
  1519  00062A  9882               	bcf	3970,4,c	;volatile
  1520                           
  1521                           ;PWMcomTimerV3.c: 278: RC5 = 1;
  1522  00062C  8A82               	bsf	3970,5,c	;volatile
  1523                           
  1524                           ;PWMcomTimerV3.c: 279: break;
  1525  00062E  0012               	return	
  1526  000630                     l126:
  1527                           
  1528                           ;PWMcomTimerV3.c: 283: RC1 = 1;
  1529  000630  8282               	bsf	3970,1,c	;volatile
  1530                           
  1531                           ;PWMcomTimerV3.c: 284: RC2 = 0;
  1532  000632  9482               	bcf	3970,2,c	;volatile
  1533                           
  1534                           ;PWMcomTimerV3.c: 286: RC4 = 0;
  1535  000634  9882               	bcf	3970,4,c	;volatile
  1536                           
  1537                           ;PWMcomTimerV3.c: 287: RC5 = 1;
  1538  000636  8A82               	bsf	3970,5,c	;volatile
  1539                           
  1540                           ;PWMcomTimerV3.c: 288: break;
  1541  000638  0012               	return	
  1542  00063A                     l127:
  1543                           
  1544                           ;PWMcomTimerV3.c: 292: RC1 = 0;
  1545  00063A  9282               	bcf	3970,1,c	;volatile
  1546                           
  1547                           ;PWMcomTimerV3.c: 293: RC2 = 1;
  1548  00063C  8482               	bsf	3970,2,c	;volatile
  1549                           
  1550                           ;PWMcomTimerV3.c: 295: RC4 = 1;
  1551  00063E  8882               	bsf	3970,4,c	;volatile
  1552                           
  1553                           ;PWMcomTimerV3.c: 296: RC5 = 0;
  1554  000640  9A82               	bcf	3970,5,c	;volatile
  1555                           
  1556                           ;PWMcomTimerV3.c: 298: }
  1557                           
  1558                           ;PWMcomTimerV3.c: 297: break;
  1559  000642  0012               	return	
  1560  000644                     l1059:
  1561  000644  C015  F017         	movff	Direction@dir,??_Direction
  1562  000648  C016  F018         	movff	Direction@dir+1,??_Direction+1
  1563                           
  1564                           ; Switch on 2 bytes has been partitioned into a top level switch of size 1, and 1 sub-sw
      +                          itches
  1565                           ; Switch size 1, requested type "space"
  1566                           ; Number of cases is 1, Range of values is 0 to 0
  1567                           ; switch strategies available:
  1568                           ; Name         Instructions Cycles
  1569                           ; simple_byte            4     3 (average)
  1570                           ;	Chosen strategy is simple_byte
  1571  00064C  5018               	movf	??_Direction+1,w,c
  1572  00064E  0A00               	xorlw	0	; case 0
  1573  000650  A4D8               	btfss	status,2,c
  1574  000652  0012               	return	
  1575                           
  1576                           ; Switch size 1, requested type "space"
  1577                           ; Number of cases is 4, Range of values is 0 to 3
  1578                           ; switch strategies available:
  1579                           ; Name         Instructions Cycles
  1580                           ; simple_byte           13     7 (average)
  1581                           ;	Chosen strategy is simple_byte
  1582  000654  5017               	movf	??_Direction,w,c
  1583  000656  0A00               	xorlw	0	; case 0
  1584  000658  B4D8               	btfsc	status,2,c
  1585  00065A  D7E0               	goto	l123
  1586  00065C  0A01               	xorlw	1	; case 1
  1587  00065E  B4D8               	btfsc	status,2,c
  1588  000660  D7E2               	goto	l125
  1589  000662  0A03               	xorlw	3	; case 2
  1590  000664  B4D8               	btfsc	status,2,c
  1591  000666  D7E4               	goto	l126
  1592  000668  0A01               	xorlw	1	; case 3
  1593  00066A  A4D8               	btfss	status,2,c
  1594  00066C  0012               	return	
  1595  00066E  D7E5               	goto	l127
  1596  000670                     __end_of_Direction:
  1597                           	opt stack 0
  1598                           tblptru	equ	0xFF8
  1599                           tblptrh	equ	0xFF7
  1600                           tblptrl	equ	0xFF6
  1601                           tablat	equ	0xFF5
  1602                           intcon	equ	0xFF2
  1603                           intcon2	equ	0xFF1
  1604                           intcon3	equ	0xFF0
  1605                           postinc0	equ	0xFEE
  1606                           wreg	equ	0xFE8
  1607                           postdec1	equ	0xFE5
  1608                           fsr1l	equ	0xFE1
  1609                           status	equ	0xFD8
  1610                           
  1611 ;; *************** function ___awmod *****************
  1612 ;; Defined at:
  1613 ;;		line 8 in file "/opt/microchip/xc8/v1.38/sources/common/awmod.c"
  1614 ;; Parameters:    Size  Location     Type
  1615 ;;  dividend        2   20[COMRAM] int 
  1616 ;;  divisor         2   22[COMRAM] int 
  1617 ;; Auto vars:     Size  Location     Type
  1618 ;;  sign            1   25[COMRAM] unsigned char 
  1619 ;;  counter         1   24[COMRAM] unsigned char 
  1620 ;; Return value:  Size  Location     Type
  1621 ;;                  2   20[COMRAM] int 
  1622 ;; Registers used:
  1623 ;;		wreg, status,2, status,0
  1624 ;; Tracked objects:
  1625 ;;		On entry : 0/0
  1626 ;;		On exit  : 0/0
  1627 ;;		Unchanged: 0/0
  1628 ;; Data sizes:     COMRAM   BANK0   BANK1   BANK2   BANK3   BANK4   BANK5
  1629 ;;      Params:         4       0       0       0       0       0       0
  1630 ;;      Locals:         2       0       0       0       0       0       0
  1631 ;;      Temps:          0       0       0       0       0       0       0
  1632 ;;      Totals:         6       0       0       0       0       0       0
  1633 ;;Total ram usage:        6 bytes
  1634 ;; Hardware stack levels used:    1
  1635 ;; Hardware stack levels required when called:    2
  1636 ;; This function calls:
  1637 ;;		Nothing
  1638 ;; This function is called by:
  1639 ;;		_main
  1640 ;; This function uses a non-reentrant model
  1641 ;;
  1642                           
  1643                           	psect	text7
  1644  00040A                     __ptext7:
  1645                           	opt stack 0
  1646  00040A                     ___awmod:
  1647                           	opt stack 28
  1648                           
  1649                           ;incstack = 0
  1650  00040A  0E00               	movlw	0
  1651  00040C  6E1A               	movwf	___awmod@sign,c
  1652  00040E  AE16               	btfss	___awmod@dividend+1,7,c
  1653  000410  D006               	goto	l1121
  1654  000412  6C15               	negf	___awmod@dividend,c
  1655  000414  1E16               	comf	___awmod@dividend+1,f,c
  1656  000416  B0D8               	btfsc	status,0,c
  1657  000418  2A16               	incf	___awmod@dividend+1,f,c
  1658  00041A  0E01               	movlw	1
  1659  00041C  6E1A               	movwf	___awmod@sign,c
  1660  00041E                     l1121:
  1661  00041E  AE18               	btfss	___awmod@divisor+1,7,c
  1662  000420  D004               	goto	l1125
  1663  000422  6C17               	negf	___awmod@divisor,c
  1664  000424  1E18               	comf	___awmod@divisor+1,f,c
  1665  000426  B0D8               	btfsc	status,0,c
  1666  000428  2A18               	incf	___awmod@divisor+1,f,c
  1667  00042A                     l1125:
  1668  00042A  5017               	movf	___awmod@divisor,w,c
  1669  00042C  1018               	iorwf	___awmod@divisor+1,w,c
  1670  00042E  B4D8               	btfsc	status,2,c
  1671  000430  D018               	goto	l1141
  1672  000432  0E01               	movlw	1
  1673  000434  6E19               	movwf	___awmod@counter,c
  1674  000436  D004               	goto	l1131
  1675  000438                     l1129:
  1676  000438  90D8               	bcf	status,0,c
  1677  00043A  3617               	rlcf	___awmod@divisor,f,c
  1678  00043C  3618               	rlcf	___awmod@divisor+1,f,c
  1679  00043E  2A19               	incf	___awmod@counter,f,c
  1680  000440                     l1131:
  1681  000440  AE18               	btfss	___awmod@divisor+1,7,c
  1682  000442  D7FA               	goto	l1129
  1683  000444                     l1133:
  1684  000444  5017               	movf	___awmod@divisor,w,c
  1685  000446  5C15               	subwf	___awmod@dividend,w,c
  1686  000448  5018               	movf	___awmod@divisor+1,w,c
  1687  00044A  5816               	subwfb	___awmod@dividend+1,w,c
  1688  00044C  A0D8               	btfss	status,0,c
  1689  00044E  D004               	goto	l1137
  1690  000450  5017               	movf	___awmod@divisor,w,c
  1691  000452  5E15               	subwf	___awmod@dividend,f,c
  1692  000454  5018               	movf	___awmod@divisor+1,w,c
  1693  000456  5A16               	subwfb	___awmod@dividend+1,f,c
  1694  000458                     l1137:
  1695  000458  90D8               	bcf	status,0,c
  1696  00045A  3218               	rrcf	___awmod@divisor+1,f,c
  1697  00045C  3217               	rrcf	___awmod@divisor,f,c
  1698  00045E  2E19               	decfsz	___awmod@counter,f,c
  1699  000460  D7F1               	goto	l1133
  1700  000462                     l1141:
  1701  000462  501A               	movf	___awmod@sign,w,c
  1702  000464  B4D8               	btfsc	status,2,c
  1703  000466  D004               	goto	l1145
  1704  000468  6C15               	negf	___awmod@dividend,c
  1705  00046A  1E16               	comf	___awmod@dividend+1,f,c
  1706  00046C  B0D8               	btfsc	status,0,c
  1707  00046E  2A16               	incf	___awmod@dividend+1,f,c
  1708  000470                     l1145:
  1709  000470  C015  F015         	movff	___awmod@dividend,?___awmod
  1710  000474  C016  F016         	movff	___awmod@dividend+1,?___awmod+1
  1711  000478  0012               	return	
  1712  00047A                     __end_of___awmod:
  1713                           	opt stack 0
  1714                           tblptru	equ	0xFF8
  1715                           tblptrh	equ	0xFF7
  1716                           tblptrl	equ	0xFF6
  1717                           tablat	equ	0xFF5
  1718                           intcon	equ	0xFF2
  1719                           intcon2	equ	0xFF1
  1720                           intcon3	equ	0xFF0
  1721                           postinc0	equ	0xFEE
  1722                           wreg	equ	0xFE8
  1723                           postdec1	equ	0xFE5
  1724                           fsr1l	equ	0xFE1
  1725                           status	equ	0xFD8
  1726                           
  1727 ;; *************** function _tc_int *****************
  1728 ;; Defined at:
  1729 ;;		line 408 in file "PWMcomTimerV3.c"
  1730 ;; Parameters:    Size  Location     Type
  1731 ;;		None
  1732 ;; Auto vars:     Size  Location     Type
  1733 ;;		None
  1734 ;; Return value:  Size  Location     Type
  1735 ;;                  1    wreg      void 
  1736 ;; Registers used:
  1737 ;;		wreg, status,2, status,0, cstack
  1738 ;; Tracked objects:
  1739 ;;		On entry : 0/0
  1740 ;;		On exit  : 0/0
  1741 ;;		Unchanged: 0/0
  1742 ;; Data sizes:     COMRAM   BANK0   BANK1   BANK2   BANK3   BANK4   BANK5
  1743 ;;      Params:         0       0       0       0       0       0       0
  1744 ;;      Locals:         0       0       0       0       0       0       0
  1745 ;;      Temps:         14       0       0       0       0       0       0
  1746 ;;      Totals:        14       0       0       0       0       0       0
  1747 ;;Total ram usage:       14 bytes
  1748 ;; Hardware stack levels used:    1
  1749 ;; Hardware stack levels required when called:    1
  1750 ;; This function calls:
  1751 ;;		i2___awmod
  1752 ;; This function is called by:
  1753 ;;		Interrupt level 2
  1754 ;; This function uses a non-reentrant model
  1755 ;;
  1756                           
  1757                           	psect	intcode
  1758  000008                     __pintcode:
  1759                           	opt stack 0
  1760  000008                     _tc_int:
  1761                           	opt stack 27
  1762                           
  1763                           ;incstack = 0
  1764  000008  8238               	bsf	btemp,1,c	;set compiler interrupt flag (level 2)
  1765  00000A  CFFA F007          	movff	pclath,??_tc_int
  1766  00000E  CFFB F008          	movff	pclatu,??_tc_int+1
  1767  000012  CFE9 F009          	movff	fsr0l,??_tc_int+2
  1768  000016  CFEA F00A          	movff	fsr0h,??_tc_int+3
  1769  00001A  CFE1 F00B          	movff	fsr1l,??_tc_int+4
  1770  00001E  CFE2 F00C          	movff	fsr1h,??_tc_int+5
  1771  000022  CFD9 F00D          	movff	fsr2l,??_tc_int+6
  1772  000026  CFDA F00E          	movff	fsr2h,??_tc_int+7
  1773  00002A  CFF3 F00F          	movff	prodl,??_tc_int+8
  1774  00002E  CFF4 F010          	movff	prodh,??_tc_int+9
  1775  000032  CFF6 F011          	movff	tblptrl,??_tc_int+10
  1776  000036  CFF7 F012          	movff	tblptrh,??_tc_int+11
  1777  00003A  CFF8 F013          	movff	tblptru,??_tc_int+12
  1778  00003E  CFF5 F014          	movff	tablat,??_tc_int+13
  1779                           
  1780                           ;PWMcomTimerV3.c: 413: if(INTCONbits.TMR0IF && INTCONbits.TMR0IE)
  1781  000042  B4F2               	btfsc	intcon,2,c	;volatile
  1782  000044  AAF2               	btfss	intcon,5,c	;volatile
  1783  000046  D027               	goto	i2l1225
  1784                           
  1785                           ;PWMcomTimerV3.c: 414: {
  1786                           ;PWMcomTimerV3.c: 415: INTCONbits.TMR0IF = 0;
  1787  000048  94F2               	bcf	intcon,2,c	;volatile
  1788                           
  1789                           ;PWMcomTimerV3.c: 416: if(running){
  1790  00004A  5030               	movf	_running,w,c
  1791  00004C  1031               	iorwf	_running+1,w,c
  1792  00004E  B4D8               	btfsc	status,2,c
  1793  000050  D022               	goto	i2l1225
  1794                           
  1795                           ;PWMcomTimerV3.c: 417: if(count == off_duty)
  1796  000052  5036               	movf	_off_duty,w,c
  1797  000054  182A               	xorwf	_count,w,c
  1798  000056  E106               	bnz	i2l1217
  1799  000058  5037               	movf	_off_duty+1,w,c
  1800  00005A  182B               	xorwf	_count+1,w,c
  1801  00005C  A4D8               	btfss	status,2,c
  1802  00005E  D002               	goto	i2l1217
  1803                           
  1804                           ;PWMcomTimerV3.c: 418: {
  1805                           ;PWMcomTimerV3.c: 419: RC7 = 1;
  1806  000060  8E82               	bsf	3970,7,c	;volatile
  1807                           
  1808                           ;PWMcomTimerV3.c: 420: LATD2 = 1;
  1809  000062  848C               	bsf	3980,2,c	;volatile
  1810  000064                     i2l1217:
  1811                           
  1812                           ;PWMcomTimerV3.c: 421: }
  1813                           ;PWMcomTimerV3.c: 423: if(count == max_cicle)
  1814  000064  5034               	movf	_max_cicle,w,c
  1815  000066  182A               	xorwf	_count,w,c
  1816  000068  E106               	bnz	i2l1221
  1817  00006A  5035               	movf	_max_cicle+1,w,c
  1818  00006C  182B               	xorwf	_count+1,w,c
  1819  00006E  A4D8               	btfss	status,2,c
  1820  000070  D002               	goto	i2l1221
  1821                           
  1822                           ;PWMcomTimerV3.c: 424: {
  1823                           ;PWMcomTimerV3.c: 425: RC7 = 0;
  1824  000072  9E82               	bcf	3970,7,c	;volatile
  1825                           
  1826                           ;PWMcomTimerV3.c: 426: LATD2 = 0;
  1827  000074  948C               	bcf	3980,2,c	;volatile
  1828  000076                     i2l1221:
  1829                           
  1830                           ;PWMcomTimerV3.c: 427: }
  1831                           ;PWMcomTimerV3.c: 429: count = count%max_cicle;
  1832  000076  C02A  F001         	movff	_count,i2___awmod@dividend
  1833  00007A  C02B  F002         	movff	_count+1,i2___awmod@dividend+1
  1834  00007E  C034  F003         	movff	_max_cicle,i2___awmod@divisor
  1835  000082  C035  F004         	movff	_max_cicle+1,i2___awmod@divisor+1
  1836  000086  EC3D  F002         	call	i2___awmod	;wreg free
  1837  00008A  C001  F02A         	movff	?i2___awmod,_count
  1838  00008E  C002  F02B         	movff	?i2___awmod+1,_count+1
  1839                           
  1840                           ;PWMcomTimerV3.c: 430: count++;
  1841  000092  4A2A               	infsnz	_count,f,c
  1842  000094  2A2B               	incf	_count+1,f,c
  1843  000096                     i2l1225:
  1844                           
  1845                           ;PWMcomTimerV3.c: 431: }
  1846                           ;PWMcomTimerV3.c: 432: }
  1847                           ;PWMcomTimerV3.c: 434: if(INTCONbits.INT0F)
  1848  000096  A2F2               	btfss	intcon,1,c	;volatile
  1849  000098  D015               	goto	i2l1235
  1850                           
  1851                           ;PWMcomTimerV3.c: 435: {
  1852                           ;PWMcomTimerV3.c: 436: if(!running){
  1853  00009A  5030               	movf	_running,w,c
  1854  00009C  1031               	iorwf	_running+1,w,c
  1855  00009E  A4D8               	btfss	status,2,c
  1856  0000A0  D010               	goto	i2l1233
  1857                           
  1858                           ;PWMcomTimerV3.c: 437: modo++;
  1859  0000A2  4A2E               	infsnz	_modo,f,c
  1860  0000A4  2A2F               	incf	_modo+1,f,c
  1861                           
  1862                           ;PWMcomTimerV3.c: 438: modo = modo%3;
  1863  0000A6  C02E  F001         	movff	_modo,i2___awmod@dividend
  1864  0000AA  C02F  F002         	movff	_modo+1,i2___awmod@dividend+1
  1865  0000AE  0E00               	movlw	0
  1866  0000B0  6E04               	movwf	i2___awmod@divisor+1,c
  1867  0000B2  0E03               	movlw	3
  1868  0000B4  6E03               	movwf	i2___awmod@divisor,c
  1869  0000B6  EC3D  F002         	call	i2___awmod	;wreg free
  1870  0000BA  C001  F02E         	movff	?i2___awmod,_modo
  1871  0000BE  C002  F02F         	movff	?i2___awmod+1,_modo+1
  1872  0000C2                     i2l1233:
  1873                           
  1874                           ;PWMcomTimerV3.c: 439: }
  1875                           ;PWMcomTimerV3.c: 441: INTCONbits.INT0F = 0;
  1876  0000C2  92F2               	bcf	intcon,1,c	;volatile
  1877  0000C4                     i2l1235:
  1878                           
  1879                           ;PWMcomTimerV3.c: 442: }
  1880                           ;PWMcomTimerV3.c: 445: if(INTCON3bits.INT1F)
  1881  0000C4  A0F0               	btfss	intcon3,0,c	;volatile
  1882  0000C6  D00E               	goto	i2l1243
  1883                           
  1884                           ;PWMcomTimerV3.c: 446: {
  1885                           ;PWMcomTimerV3.c: 447: if(!running){
  1886  0000C8  5030               	movf	_running,w,c
  1887  0000CA  1031               	iorwf	_running+1,w,c
  1888  0000CC  A4D8               	btfss	status,2,c
  1889  0000CE  D009               	goto	i2l1241
  1890                           
  1891                           ;PWMcomTimerV3.c: 448: direcao = !direcao;
  1892  0000D0  502C               	movf	_direcao,w,c
  1893  0000D2  102D               	iorwf	_direcao+1,w,c
  1894  0000D4  A4D8               	btfss	status,2,c
  1895  0000D6  D002               	goto	i2u78_40
  1896  0000D8  0E01               	movlw	1
  1897  0000DA  D001               	goto	i2u79_40
  1898  0000DC                     i2u78_40:
  1899  0000DC  0E00               	movlw	0
  1900  0000DE                     i2u79_40:
  1901  0000DE  6E2C               	movwf	_direcao,c
  1902  0000E0  6A2D               	clrf	_direcao+1,c
  1903  0000E2                     i2l1241:
  1904                           
  1905                           ;PWMcomTimerV3.c: 449: }
  1906                           ;PWMcomTimerV3.c: 451: INTCON3bits.INT1F = 0;
  1907  0000E2  90F0               	bcf	intcon3,0,c	;volatile
  1908  0000E4                     i2l1243:
  1909                           
  1910                           ;PWMcomTimerV3.c: 452: }
  1911                           ;PWMcomTimerV3.c: 454: if(INTCON3bits.INT2F)
  1912  0000E4  A2F0               	btfss	intcon3,1,c	;volatile
  1913  0000E6  D009               	goto	i2l167
  1914                           
  1915                           ;PWMcomTimerV3.c: 455: {
  1916                           ;PWMcomTimerV3.c: 456: if(!running){
  1917  0000E8  5030               	movf	_running,w,c
  1918  0000EA  1031               	iorwf	_running+1,w,c
  1919  0000EC  A4D8               	btfss	status,2,c
  1920  0000EE  D004               	goto	i2l1249
  1921                           
  1922                           ;PWMcomTimerV3.c: 457: running = 1;
  1923  0000F0  0E00               	movlw	0
  1924  0000F2  6E31               	movwf	_running+1,c
  1925  0000F4  0E01               	movlw	1
  1926  0000F6  6E30               	movwf	_running,c
  1927  0000F8                     i2l1249:
  1928                           
  1929                           ;PWMcomTimerV3.c: 458: }
  1930                           ;PWMcomTimerV3.c: 460: INTCON3bits.INT2F = 0;
  1931  0000F8  92F0               	bcf	intcon3,1,c	;volatile
  1932  0000FA                     i2l167:
  1933  0000FA  C014  FFF5         	movff	??_tc_int+13,tablat
  1934  0000FE  C013  FFF8         	movff	??_tc_int+12,tblptru
  1935  000102  C012  FFF7         	movff	??_tc_int+11,tblptrh
  1936  000106  C011  FFF6         	movff	??_tc_int+10,tblptrl
  1937  00010A  C010  FFF4         	movff	??_tc_int+9,prodh
  1938  00010E  C00F  FFF3         	movff	??_tc_int+8,prodl
  1939  000112  C00E  FFDA         	movff	??_tc_int+7,fsr2h
  1940  000116  C00D  FFD9         	movff	??_tc_int+6,fsr2l
  1941  00011A  C00C  FFE2         	movff	??_tc_int+5,fsr1h
  1942  00011E  C00B  FFE1         	movff	??_tc_int+4,fsr1l
  1943  000122  C00A  FFEA         	movff	??_tc_int+3,fsr0h
  1944  000126  C009  FFE9         	movff	??_tc_int+2,fsr0l
  1945  00012A  C008  FFFB         	movff	??_tc_int+1,pclatu
  1946  00012E  C007  FFFA         	movff	??_tc_int,pclath
  1947  000132  9238               	bcf	btemp,1,c	;clear compiler interrupt flag (level 2)
  1948  000134  0011               	retfie		f
  1949  000136                     __end_of_tc_int:
  1950                           	opt stack 0
  1951                           pclatu	equ	0xFFB
  1952                           pclath	equ	0xFFA
  1953                           tblptru	equ	0xFF8
  1954                           tblptrh	equ	0xFF7
  1955                           tblptrl	equ	0xFF6
  1956                           tablat	equ	0xFF5
  1957                           prodh	equ	0xFF4
  1958                           prodl	equ	0xFF3
  1959                           intcon	equ	0xFF2
  1960                           intcon2	equ	0xFF1
  1961                           intcon3	equ	0xFF0
  1962                           postinc0	equ	0xFEE
  1963                           fsr0h	equ	0xFEA
  1964                           fsr0l	equ	0xFE9
  1965                           wreg	equ	0xFE8
  1966                           postdec1	equ	0xFE5
  1967                           fsr1h	equ	0xFE2
  1968                           fsr1l	equ	0xFE1
  1969                           fsr2h	equ	0xFDA
  1970                           fsr2l	equ	0xFD9
  1971                           status	equ	0xFD8
  1972                           
  1973 ;; *************** function i2___awmod *****************
  1974 ;; Defined at:
  1975 ;;		line 8 in file "/opt/microchip/xc8/v1.38/sources/common/awmod.c"
  1976 ;; Parameters:    Size  Location     Type
  1977 ;;  dividend        2    0[COMRAM] int 
  1978 ;;  divisor         2    2[COMRAM] int 
  1979 ;; Auto vars:     Size  Location     Type
  1980 ;;  __awmod         1    5[COMRAM] unsigned char 
  1981 ;;  __awmod         1    4[COMRAM] unsigned char 
  1982 ;; Return value:  Size  Location     Type
  1983 ;;                  2    0[COMRAM] int 
  1984 ;; Registers used:
  1985 ;;		wreg, status,2, status,0
  1986 ;; Tracked objects:
  1987 ;;		On entry : 0/0
  1988 ;;		On exit  : 0/0
  1989 ;;		Unchanged: 0/0
  1990 ;; Data sizes:     COMRAM   BANK0   BANK1   BANK2   BANK3   BANK4   BANK5
  1991 ;;      Params:         4       0       0       0       0       0       0
  1992 ;;      Locals:         2       0       0       0       0       0       0
  1993 ;;      Temps:          0       0       0       0       0       0       0
  1994 ;;      Totals:         6       0       0       0       0       0       0
  1995 ;;Total ram usage:        6 bytes
  1996 ;; Hardware stack levels used:    1
  1997 ;; This function calls:
  1998 ;;		Nothing
  1999 ;; This function is called by:
  2000 ;;		_tc_int
  2001 ;; This function uses a non-reentrant model
  2002 ;;
  2003                           
  2004                           	psect	text9
  2005  00047A                     __ptext9:
  2006                           	opt stack 0
  2007  00047A                     i2___awmod:
  2008                           	opt stack 27
  2009                           
  2010                           ;incstack = 0
  2011  00047A  0E00               	movlw	0
  2012  00047C  6E06               	movwf	i2___awmod@sign,c
  2013  00047E  AE02               	btfss	i2___awmod@dividend+1,7,c
  2014  000480  D006               	goto	i2l1157
  2015  000482  6C01               	negf	i2___awmod@dividend,c
  2016  000484  1E02               	comf	i2___awmod@dividend+1,f,c
  2017  000486  B0D8               	btfsc	status,0,c
  2018  000488  2A02               	incf	i2___awmod@dividend+1,f,c
  2019  00048A  0E01               	movlw	1
  2020  00048C  6E06               	movwf	i2___awmod@sign,c
  2021  00048E                     i2l1157:
  2022  00048E  AE04               	btfss	i2___awmod@divisor+1,7,c
  2023  000490  D004               	goto	i2l1161
  2024  000492  6C03               	negf	i2___awmod@divisor,c
  2025  000494  1E04               	comf	i2___awmod@divisor+1,f,c
  2026  000496  B0D8               	btfsc	status,0,c
  2027  000498  2A04               	incf	i2___awmod@divisor+1,f,c
  2028  00049A                     i2l1161:
  2029  00049A  5003               	movf	i2___awmod@divisor,w,c
  2030  00049C  1004               	iorwf	i2___awmod@divisor+1,w,c
  2031  00049E  B4D8               	btfsc	status,2,c
  2032  0004A0  D018               	goto	i2l1177
  2033  0004A2  0E01               	movlw	1
  2034  0004A4  6E05               	movwf	i2___awmod@counter,c
  2035  0004A6  D004               	goto	i2l1167
  2036  0004A8                     i2l1165:
  2037  0004A8  90D8               	bcf	status,0,c
  2038  0004AA  3603               	rlcf	i2___awmod@divisor,f,c
  2039  0004AC  3604               	rlcf	i2___awmod@divisor+1,f,c
  2040  0004AE  2A05               	incf	i2___awmod@counter,f,c
  2041  0004B0                     i2l1167:
  2042  0004B0  AE04               	btfss	i2___awmod@divisor+1,7,c
  2043  0004B2  D7FA               	goto	i2l1165
  2044  0004B4                     i2l1169:
  2045  0004B4  5003               	movf	i2___awmod@divisor,w,c
  2046  0004B6  5C01               	subwf	i2___awmod@dividend,w,c
  2047  0004B8  5004               	movf	i2___awmod@divisor+1,w,c
  2048  0004BA  5802               	subwfb	i2___awmod@dividend+1,w,c
  2049  0004BC  A0D8               	btfss	status,0,c
  2050  0004BE  D004               	goto	i2l1173
  2051  0004C0  5003               	movf	i2___awmod@divisor,w,c
  2052  0004C2  5E01               	subwf	i2___awmod@dividend,f,c
  2053  0004C4  5004               	movf	i2___awmod@divisor+1,w,c
  2054  0004C6  5A02               	subwfb	i2___awmod@dividend+1,f,c
  2055  0004C8                     i2l1173:
  2056  0004C8  90D8               	bcf	status,0,c
  2057  0004CA  3204               	rrcf	i2___awmod@divisor+1,f,c
  2058  0004CC  3203               	rrcf	i2___awmod@divisor,f,c
  2059  0004CE  2E05               	decfsz	i2___awmod@counter,f,c
  2060  0004D0  D7F1               	goto	i2l1169
  2061  0004D2                     i2l1177:
  2062  0004D2  5006               	movf	i2___awmod@sign,w,c
  2063  0004D4  B4D8               	btfsc	status,2,c
  2064  0004D6  D004               	goto	i2l1181
  2065  0004D8  6C01               	negf	i2___awmod@dividend,c
  2066  0004DA  1E02               	comf	i2___awmod@dividend+1,f,c
  2067  0004DC  B0D8               	btfsc	status,0,c
  2068  0004DE  2A02               	incf	i2___awmod@dividend+1,f,c
  2069  0004E0                     i2l1181:
  2070  0004E0  C001  F001         	movff	i2___awmod@dividend,?i2___awmod
  2071  0004E4  C002  F002         	movff	i2___awmod@dividend+1,?i2___awmod+1
  2072  0004E8  0012               	return	
  2073  0004EA                     __end_ofi2___awmod:
  2074                           	opt stack 0
  2075  0000                     pclatu	equ	0xFFB
  2076                           pclath	equ	0xFFA
  2077                           tblptru	equ	0xFF8
  2078                           tblptrh	equ	0xFF7
  2079                           tblptrl	equ	0xFF6
  2080                           tablat	equ	0xFF5
  2081                           prodh	equ	0xFF4
  2082                           prodl	equ	0xFF3
  2083                           intcon	equ	0xFF2
  2084                           intcon2	equ	0xFF1
  2085                           intcon3	equ	0xFF0
  2086                           postinc0	equ	0xFEE
  2087                           fsr0h	equ	0xFEA
  2088                           fsr0l	equ	0xFE9
  2089                           wreg	equ	0xFE8
  2090                           postdec1	equ	0xFE5
  2091                           fsr1h	equ	0xFE2
  2092                           fsr1l	equ	0xFE1
  2093                           fsr2h	equ	0xFDA
  2094                           fsr2l	equ	0xFD9
  2095                           status	equ	0xFD8
  2096                           pclatu	equ	0xFFB
  2097                           pclath	equ	0xFFA
  2098                           tblptru	equ	0xFF8
  2099                           tblptrh	equ	0xFF7
  2100                           tblptrl	equ	0xFF6
  2101                           tablat	equ	0xFF5
  2102                           prodh	equ	0xFF4
  2103                           prodl	equ	0xFF3
  2104                           intcon	equ	0xFF2
  2105                           intcon2	equ	0xFF1
  2106                           intcon3	equ	0xFF0
  2107                           postinc0	equ	0xFEE
  2108                           fsr0h	equ	0xFEA
  2109                           fsr0l	equ	0xFE9
  2110                           wreg	equ	0xFE8
  2111                           postdec1	equ	0xFE5
  2112                           fsr1h	equ	0xFE2
  2113                           fsr1l	equ	0xFE1
  2114                           fsr2h	equ	0xFDA
  2115                           fsr2l	equ	0xFD9
  2116                           status	equ	0xFD8
  2117                           
  2118                           	psect	rparam
  2119  0000                     pclatu	equ	0xFFB
  2120                           pclath	equ	0xFFA
  2121                           tblptru	equ	0xFF8
  2122                           tblptrh	equ	0xFF7
  2123                           tblptrl	equ	0xFF6
  2124                           tablat	equ	0xFF5
  2125                           prodh	equ	0xFF4
  2126                           prodl	equ	0xFF3
  2127                           intcon	equ	0xFF2
  2128                           intcon2	equ	0xFF1
  2129                           intcon3	equ	0xFF0
  2130                           postinc0	equ	0xFEE
  2131                           fsr0h	equ	0xFEA
  2132                           fsr0l	equ	0xFE9
  2133                           wreg	equ	0xFE8
  2134                           postdec1	equ	0xFE5
  2135                           fsr1h	equ	0xFE2
  2136                           fsr1l	equ	0xFE1
  2137                           fsr2h	equ	0xFDA
  2138                           fsr2l	equ	0xFD9
  2139                           status	equ	0xFD8
  2140                           
  2141                           	psect	temp
  2142  000038                     btemp:
  2143                           	opt stack 0
  2144  000038                     	ds	1
  2145  0000                     int$flags	set	btemp
  2146                           pclatu	equ	0xFFB
  2147                           pclath	equ	0xFFA
  2148                           tblptru	equ	0xFF8
  2149                           tblptrh	equ	0xFF7
  2150                           tblptrl	equ	0xFF6
  2151                           tablat	equ	0xFF5
  2152                           prodh	equ	0xFF4
  2153                           prodl	equ	0xFF3
  2154                           intcon	equ	0xFF2
  2155                           intcon2	equ	0xFF1
  2156                           intcon3	equ	0xFF0
  2157                           postinc0	equ	0xFEE
  2158                           fsr0h	equ	0xFEA
  2159                           fsr0l	equ	0xFE9
  2160                           wreg	equ	0xFE8
  2161                           postdec1	equ	0xFE5
  2162                           fsr1h	equ	0xFE2
  2163                           fsr1l	equ	0xFE1
  2164                           fsr2h	equ	0xFDA
  2165                           fsr2l	equ	0xFD9
  2166                           status	equ	0xFD8


Data Sizes:
    Strings     0
    Constant    0
    Data        4
    BSS         10
    Persistent  0
    Stack       0

Auto Spaces:
    Space          Size  Autos    Used
    COMRAM           94     41      55
    BANK0           160      0       0
    BANK1           256      0       0
    BANK2           256      0       0
    BANK3           256      0       0
    BANK4           256      0       0
    BANK5           256      0       0

Pointer List with Targets:

    None.

Critical Paths under _main in COMRAM

    _main->_ativaModo
    _ativaModo->_SetPWM

Critical Paths under _tc_int in COMRAM

    _tc_int->i2___awmod

Critical Paths under _main in BANK0

    None.

Critical Paths under _tc_int in BANK0

    None.

Critical Paths under _main in BANK1

    None.

Critical Paths under _tc_int in BANK1

    None.

Critical Paths under _main in BANK2

    None.

Critical Paths under _tc_int in BANK2

    None.

Critical Paths under _main in BANK3

    None.

Critical Paths under _tc_int in BANK3

    None.

Critical Paths under _main in BANK4

    None.

Critical Paths under _tc_int in BANK4

    None.

Critical Paths under _main in BANK5

    None.

Critical Paths under _tc_int in BANK5

    None.

Call Graph Tables:

 ---------------------------------------------------------------------------------
 (Depth) Function   	        Calls       Base Space   Used Autos Params    Refs
 ---------------------------------------------------------------------------------
 (0) _main                                                 5     0      5    3712
                                             36 COMRAM     5     0      5
                            ___awmod
                          _ativaModo
                            _attLeds
                             _delayX
                              _setup
 ---------------------------------------------------------------------------------
 (1) _setup                                                0     0      0       0
 ---------------------------------------------------------------------------------
 (1) _attLeds                                              0     0      0       0
 ---------------------------------------------------------------------------------
 (1) _ativaModo                                           10     6      4    2657
                                             26 COMRAM    10     6      4
                          _Direction
                             _SetPWM
                             _delayX
 ---------------------------------------------------------------------------------
 (1) _delayX                                               5     3      2     605
                                             20 COMRAM     5     3      2
 ---------------------------------------------------------------------------------
 (2) _SetPWM                                               6     2      4    1420
                                             20 COMRAM     6     2      4
 ---------------------------------------------------------------------------------
 (2) _Direction                                            4     2      2     366
                                             20 COMRAM     4     2      2
 ---------------------------------------------------------------------------------
 (1) ___awmod                                              6     2      4     450
                                             20 COMRAM     6     2      4
 ---------------------------------------------------------------------------------
 Estimated maximum stack depth 2
 ---------------------------------------------------------------------------------
 (Depth) Function   	        Calls       Base Space   Used Autos Params    Refs
 ---------------------------------------------------------------------------------
 (3) _tc_int                                              14    14      0     400
                                              6 COMRAM    14    14      0
                          i2___awmod
 ---------------------------------------------------------------------------------
 (4) i2___awmod                                            6     2      4     400
                                              0 COMRAM     6     2      4
 ---------------------------------------------------------------------------------
 Estimated maximum stack depth 4
 ---------------------------------------------------------------------------------

 Call Graph Graphs:

 _main (ROOT)
   ___awmod
   _ativaModo
     _Direction
     _SetPWM
     _delayX
   _attLeds
   _delayX
   _setup

 _tc_int (ROOT)
   i2___awmod

 Address spaces:
Name               Size   Autos  Total    Cost      Usage
BIGRAM             5FF      0       0      17        0.0%
EEDATA             100      0       0       0        0.0%
BITBANK5           100      0       0      16        0.0%
BANK5              100      0       0      14        0.0%
BITBANK4           100      0       0      12        0.0%
BANK4              100      0       0      13        0.0%
BITBANK3           100      0       0      10        0.0%
BANK3              100      0       0      11        0.0%
BITBANK2           100      0       0       8        0.0%
BANK2              100      0       0       9        0.0%
BITBANK1           100      0       0       6        0.0%
BANK1              100      0       0       7        0.0%
BITBANK0            A0      0       0       4        0.0%
BANK0               A0      0       0       5        0.0%
BITCOMRAM           5E      0       0       0        0.0%
COMRAM              5E     29      37       1       58.5%
BITSFR               0      0       0      40        0.0%
SFR                  0      0       0      40        0.0%
STACK                0      0       0       2        0.0%
NULL                 0      0       0       0        0.0%
ABS                  0      0      37      15        0.0%
DATA                 0      0      37       3        0.0%
CODE                 0      0       0       0        0.0%


Microchip Technology PIC18 Macro Assembler V1.38 build -256452561 
Symbol Table                                                                                   Wed Sep 14 19:32:58 2016

                     l95 051E                       l96 0520                       u70 0528  
           __CFG_CP0$OFF 000000             __CFG_CP1$OFF 000000             __CFG_CP2$OFF 000000  
           __CFG_CP3$OFF 000000                      l111 0612                      l105 071A  
                    l123 061C                      l125 0626                      l126 0630  
                    l127 063A                      l146 0408                      l811 0504  
                    l823 0538                      l815 0512                      l807 04F8  
                    l827 0546                      l819 052A             __CFG_CPB$OFF 000000  
                    _RC1 007C11                      _RC2 007C12                      _RC4 007C14  
                    _RC5 007C15                      _RC7 007C17                      u500 01EA  
                    u510 0292                      u520 02AE             __CFG_CPD$OFF 000000  
                    u827 070A             __CFG_BORV$18 000000             ___awmod@sign 001A  
                    wreg 000FE8             __CFG_LVP$OFF 000000                     l1031 0704  
                   l1103 03A0                     l1121 041E                     l1041 05CE  
                   l1131 0440                     l1043 05D8                     l1107 03E2  
                   l1203 05B2                     l1133 0444                     l1141 0462  
                   l1125 042A                     l1045 05E2                     l1039 05C4  
                   l1071 0186                     l1145 0470                     l1137 0458  
                   l1129 0438                     l1049 05EC                     l1081 01EC  
                   l1073 01C8                     l1059 0644                     l1067 013C  
                   l1093 02B0                     l1087 0294                     l1099 0356  
                   l1197 058E                     l1189 055E                     _main 0556  
                   _modo 002E                     fsr0h 000FEA                     fsr1h 000FE2  
                   fsr0l 000FE9                     fsr2h 000FDA                     fsr1l 000FE1  
                   fsr2l 000FD9                     btemp 0038                     pclat 000FFA  
                   prodh 000FF4                     prodl 000FF3                     start 0136  
          __CFG_IESO$OFF 000000             ativaModo@dir 001D             ___param_bank 000010  
                  ?_main 0025          __end_of___awmod 047A                    _LATD0 007C60  
                  _LATD1 007C61                    _LATD2 007C62                    _LATD4 007C64  
                  _LATD6 007C66                    _LATD7 007C67                    i2l167 00FA  
          __CFG_PWRT$OFF 000000            __CFG_WRT0$OFF 000000            __CFG_WRT1$OFF 000000  
          __CFG_WRT2$OFF 000000            __CFG_WRT3$OFF 000000           __CFG_EBTR0$OFF 000000  
         __CFG_FCMEN$OFF 000000           __CFG_EBTR1$OFF 000000          __end_of_attLeds 0556  
         __CFG_EBTR2$OFF 000000           __CFG_EBTR3$OFF 000000            __CFG_WRTB$OFF 000000  
          __CFG_WRTC$OFF 000000            __CFG_WRTD$OFF 000000           __CFG_EBTRB$OFF 000000  
                  _count 002A                    _setup 0670                    tablat 000FF5  
                  status 000FD8       __size_ofi2___awmod 0070            ativaModo@Modo 001B  
         __CFG_MCLRE$OFF 000000          __initialization 06C0             __end_of_main 05B8  
                 ??_main 002A            __activetblptr 000002       __size_of_Direction 0056  
                 ?_setup 0001                   i2l1221 0076                   i2l1161 049A  
                 i2l1241 00E2                   i2l1233 00C2                   i2l1217 0064  
                 i2l1225 0096                   i2l1243 00E4                   i2l1235 00C4  
                 i2l1181 04E0                   i2l1173 04C8                   i2l1165 04A8  
                 i2l1157 048E                   i2l1167 04B0                   i2l1169 04B4  
                 i2l1177 04D2                   i2l1249 00F8           __CFG_WDTEN$OFF 000000  
                 _TRISB0 007C98                   _TRISB1 007C99                   _TRISB2 007C9A  
                 _TRISC1 007CA1                   _TRISD0 007CA8                   _TRISC2 007CA2  
                 _TRISD1 007CA9                   _TRISD2 007CAA                   _TRISC4 007CA4  
                 _TRISD3 007CAB                   _TRISC5 007CA5                   _TRISD4 007CAC  
                 _TRISC6 007CA6                   _TRISD5 007CAD                   _TRISC7 007CA7  
                 _TRISD6 007CAE                   _TRISD7 007CAF                   _SetPWM 05B8  
         __CFG_XINST$OFF 000000              SetPWM@veloc 0017                ??___awmod 0019  
                 _delayX 06FA                   clear_0 06E6                   _tc_int 0008  
        ___awmod@divisor 0017          ___awmod@counter 0019                ??_attLeds 0015  
           __pdataCOMRAM 0034        __end_ofi2___awmod 04EA                   tblptrh 000FF7  
                 tblptrl 000FF6                   tblptru 000FF8           i2___awmod@sign 0006  
        __CFG_HFOFST$OFF 000000               __accesstop 0060  __end_of__initialization 06EC  
        __CFG_PBADEN$OFF 000000            ___rparam_used 000001           ativaModo@i_433 0023  
      __end_of_Direction 0670           __pcstackCOMRAM 0001            __end_of_setup 06C0  
     __size_of_ativaModo 02D0                  ??_setup 0015                  ?_SetPWM 0015  
                ?_delayX 0015                  ?_tc_int 0001                  i2u78_40 00DC  
                i2u79_40 00DE                  __Hparam 0000             SetPWM@status 0015  
                __Lparam 0000          __size_of_SetPWM 0062        __end_of_ativaModo 040A  
                ___awmod 040A          __size_of_delayX 0036          __CFG_STVREN$OFF 000000  
                __pcinit 06C0                  __ramtop 0600          __size_of_tc_int 012E  
                __ptext0 0556                  __ptext1 0670                  __ptext2 04EA  
                __ptext3 013A                  __ptext4 06FA                  __ptext5 05B8  
                _direcao 002C                  __ptext6 061A                  __ptext7 040A  
                __ptext9 047A                  _attLeds 04EA                _T0CONbits 000FD5  
                delayX@i 0018                  delayX@n 0015         ___awmod@dividend 0015  
                _running 0030     end_of_initialization 06EC            __Lmediumconst 0000  
                postdec1 000FE5                  postinc0 000FEE                _PORTCbits 000F82  
             _velocidade 0032                i2___awmod 047A               ativaModo@i 0021  
         __end_of_SetPWM 061A                _Direction 061A           __end_of_delayX 0730  
          __pidataCOMRAM 0730           __end_of_tc_int 0136      start_initialization 06C0  
             ?i2___awmod 0001                 ??_SetPWM 0019                 ??_delayX 0017  
             ?_Direction 0015         __CFG_LPT1OSC$OFF 000000                 ??_tc_int 0007  
            __pbssCOMRAM 002A        __CFG_CCP2MX$PORTC 000000                __pintcode 0008  
               ?___awmod 0015                _ativaModo 013A                 ?_attLeds 0001  
              _max_cicle 0034              ??i2___awmod 0005           __size_of_setup 0050  
               _RCONbits 000FD0         __CFG_WDTPS$32768 000000              ??_Direction 0017  
             ?_ativaModo 001B              _INTCON2bits 000FF1              _INTCON3bits 000FF0  
              copy_data0 06D4       i2___awmod@dividend 0001                 __Hrparam 0000  
               __Lrparam 0000       __CFG_BOREN$SBORDIS 000000         __size_of___awmod 0070  
       __size_of_attLeds 006C             Direction@dir 0015                 _off_duty 0036  
          __size_of_main 0062                 int$flags 0038                 main@argc 0025  
               main@argv 0027              ??_ativaModo 001F        i2___awmod@divisor 0003  
      i2___awmod@counter 0005               _INTCONbits 000FF2                 intlevel2 0000  
      __CFG_FOSC$INTIO67 000000  
